(dp0
S'seq'
p1
(lp2
S'-scalarrepl'
p3
aS'-loop-unroll'
p4
aS'-instsimplify'
p5
aS'-loop-rotate'
p6
aS'-partial-inliner'
p7
aS'-adce'
p8
aS'-domtree'
p9
aS'-indvars'
p10
aS'-lazy-value-info'
p11
aS'-prune-eh'
p12
aS'-sink'
p13
aS'-loops'
p14
aS'-ipsccp'
p15
aS'-reassociate'
p16
aS'-loop-idiom'
p17
aS'-lowerinvoke'
p18
aS'-loop-reduce'
p19
aS'-constmerge'
p20
aS'-correlated-propagation'
p21
aS'-scalarrepl-ssa'
p22
aS'-memdep'
p23
aS'-loop-deletion'
p24
aS'-globaldce'
p25
aS'-loops'
p26
aS'-inline'
p27
aS'-gvn'
p28
aS'-globaldce'
p29
aS'-no-aa'
p30
aS'-globalopt'
p31
aS'-constmerge'
p32
aS'-tailcallelim'
p33
aS'-tailcallelim'
p34
aS'-constprop'
p35
asS'fitness'
p36
I1781
s.