(dp0
S'seq'
p1
(lp2
S'-scalarrepl'
p3
aS'-loop-unroll'
p4
aS'-scalar-evolution'
p5
aS'-loop-rotate'
p6
aS'-lowerinvoke'
p7
aS'-partial-inliner'
p8
aS'-indvars'
p9
aS'-lazy-value-info'
p10
aS'-prune-eh'
p11
aS'-sink'
p12
aS'-loops'
p13
aS'-ipsccp'
p14
aS'-reassociate'
p15
aS'-loop-idiom'
p16
aS'-globaldce'
p17
aS'-loop-reduce'
p18
aS'-correlated-propagation'
p19
aS'-scalarrepl-ssa'
p20
aS'-constmerge'
p21
aS'-loop-deletion'
p22
aS'-globaldce'
p23
aS'-gvn'
p24
aS'-partial-inliner'
p25
aS'-no-aa'
p26
aS'-globalopt'
p27
aS'-constmerge'
p28
aS'-ipconstprop'
p29
aS'-tailcallelim'
p30
asS'fitness'
p31
I381
s.