(dp0
S'seq'
p1
(lp2
S'-adce'
p3
aS'-scalarrepl-ssa'
p4
aS'-loop-deletion'
p5
aS'-codegenprepare'
p6
aS'-loop-rotate'
p7
aS'-targetlibinfo'
p8
aS'-sink'
p9
aS'-functionattrs'
p10
aS'-sccp'
p11
aS'-adce'
p12
aS'-constmerge'
p13
aS'-loop-simplify'
p14
aS'-lazy-value-info'
p15
aS'-scalarrepl'
p16
aS'-loop-unroll'
p17
aS'-scalar-evolution'
p18
aS'-early-cse'
p19
aS'-constmerge'
p20
aS'-instsimplify'
p21
aS'-lowerinvoke'
p22
asS'fitness'
p23
I1009
s.