(dp0
S'seq'
p1
(lp2
S'-scalarrepl'
p3
aS'-loop-unroll'
p4
aS'-scalar-evolution'
p5
aS'-early-cse'
p6
aS'-dce'
p7
aS'-adce'
p8
aS'-loop-rotate'
p9
aS'-licm'
p10
aS'-loops'
p11
aS'-dse'
p12
aS'-loop-rotate'
p13
aS'-lowerinvoke'
p14
asS'fitness'
p15
I2930
s.