(dp0
S'seq'
p1
(lp2
S'-scalarrepl'
p3
aS'-loop-unroll'
p4
aS'-early-cse'
p5
aS'-dce'
p6
aS'-always-inline'
p7
aS'-deadargelim'
p8
aS'-constmerge'
p9
aS'-loop-rotate'
p10
aS'-adce'
p11
aS'-lowerinvoke'
p12
asS'fitness'
p13
I686
s.