(dp0
S'seq'
p1
(lp2
S'-scalarrepl'
p3
aS'-scalar-evolution'
p4
aS'-early-cse'
p5
aS'-instsimplify'
p6
aS'-lowerinvoke'
p7
aS'scalarrepl'
p8
aS'-partial-inliner'
p9
aS'-domtree'
p10
aS'-indvars'
p11
aS'-prune-eh'
p12
aS'-sink'
p13
aS'-loops'
p14
aS'-ipsccp'
p15
aS'-reassociate'
p16
aS'-loop-idiom'
p17
aS'-constmerge'
p18
aS'-loop-reduce'
p19
aS'-correlated-propagation'
p20
aS'-scalarrepl-ssa'
p21
aS'-memdep'
p22
aS'-loop-deletion'
p23
aS'-globaldce'
p24
aS'-gvn'
p25
aS'-no-aa'
p26
aS'-globalopt'
p27
aS'-constmerge'
p28
aS'-tailcallelim'
p29
aS'-constprop'
p30
asS'fitness'
p31
I811
s.