(dp0
S'seq'
p1
(lp2
S'-scalarrepl'
p3
aS'-constprop'
p4
aS'-constmerge'
p5
aS'-scalar-evolution'
p6
aS'-instsimplify'
p7
aS'-loop-rotate'
p8
aS'-lowerinvoke'
p9
aS'-partial-inliner'
p10
aS'-domtree'
p11
aS'-indvars'
p12
aS'-lazy-value-info'
p13
aS'-prune-eh'
p14
aS'-sink'
p15
aS'-deadargelim'
p16
aS'-loops'
p17
aS'-ipsccp'
p18
aS'-reassociate'
p19
aS'-loop-idiom'
p20
aS'-early-cse'
p21
aS'-loop-reduce'
p22
aS'-correlated-propagation'
p23
aS'-scalarrepl-ssa'
p24
aS'-memdep'
p25
aS'-loop-deletion'
p26
aS'-globaldce'
p27
aS'-gvn'
p28
aS'-no-aa'
p29
aS'-globalopt'
p30
aS'-constmerge'
p31
aS'-tailcallelim'
p32
aS'-constprop'
p33
aS'-adce'
p34
asS'fitness'
p35
I553
s.