(dp0
S'seq'
p1
(lp2
S'-scalarrepl'
p3
aS'-loop-unroll'
p4
aS'-scalar-evolution'
p5
aS'-early-cse'
p6
aS'-instsimplify'
p7
aS'-loop-rotate'
p8
aS'-lowerinvoke'
p9
aS'-loop-idiom'
p10
aS'-dce'
p11
aS'-constmerge'
p12
aS'-constmerge'
p13
aS'-reassociate'
p14
aS'-die'
p15
aS'-deadargelim'
p16
aS'-partial-inliner'
p17
aS'-always-inline'
p18
aS'-inline'
p19
aS'-functionattrs'
p20
aS'-sccp'
p21
asS'fitness'
p22
I10358
s.