(dp0
S'seq'
p1
(lp2
S'-scalarrepl-ssa'
p3
aS'-loop-rotate'
p4
aS'-targetlibinfo'
p5
aS'-sink'
p6
aS'-functionattrs'
p7
aS'-sccp'
p8
aS'-adce'
p9
aS'-constmerge'
p10
aS'-loop-simplify'
p11
aS'-lazy-value-info'
p12
aS'-no-aa'
p13
aS'-scalarrepl'
p14
aS'-loop-unroll'
p15
aS'-scalar-evolution'
p16
aS'-loop-rotate'
p17
aS'-early-cse'
p18
aS'-instsimplify'
p19
aS'-lowerinvoke'
p20
aS'-simplifycfg'
p21
aS'-globaldce'
p22
aS'-basiccg'
p23
aS'-indvars'
p24
aS'-prune-eh'
p25
aS'-loweratomic'
p26
aS'-loops'
p27
aS'-adce'
p28
aS'-inline'
p29
aS'-ipconstprop'
p30
aS'-domtree'
p31
aS'-lower-expect'
p32
aS'-mergereturn'
p33
aS'-lowerswitch'
p34
asS'fitness'
p35
I523
s.