(dp0
S'seq'
p1
(lp2
S'-scalarrepl'
p3
aS'-constmerge'
p4
aS'-scalar-evolution'
p5
aS'-adce'
p6
aS'-early-cse'
p7
aS'-lowerinvoke'
p8
aS'-instsimplify'
p9
aS'-lowerinvoke'
p10
aS'-deadargelim'
p11
asS'fitness'
p12
I1864
s.