(dp0
S'seq'
p1
(lp2
S'-scalar-evolution'
p3
aS'-always-inline'
p4
aS'-early-cse'
p5
aS'-instsimplify'
p6
aS'-loop-rotate'
p7
aS'-lowerinvoke'
p8
aS'-partial-inliner'
p9
aS'-domtree'
p10
aS'-indvars'
p11
aS'-lazy-value-info'
p12
aS'-prune-eh'
p13
aS'-sink'
p14
aS'-loops'
p15
aS'-ipsccp'
p16
aS'-reassociate'
p17
aS'-loop-idiom'
p18
aS'-loop-reduce'
p19
aS'-correlated-propagation'
p20
aS'-scalarrepl-ssa'
p21
aS'-adce'
p22
aS'-memdep'
p23
aS'-loop-deletion'
p24
aS'-deadargelim'
p25
aS'-globaldce'
p26
aS'-partial-inliner'
p27
aS'-gvn'
p28
aS'-no-aa'
p29
aS'-globalopt'
p30
aS'-constmerge'
p31
aS'-tailcallelim'
p32
aS'-constprop'
p33
asS'fitness'
p34
I510
s.