(dp0
S'seq'
p1
(lp2
S'-scalarrepl'
p3
aS'-adce'
p4
aS'-loop-unroll'
p5
aS'-scalar-evolution'
p6
aS'-early-cse'
p7
aS'-instsimplify'
p8
aS'-loop-rotate'
p9
aS'-lowerinvoke'
p10
aS'-partial-inliner'
p11
aS'-domtree'
p12
aS'-lazy-value-info'
p13
aS'-prune-eh'
p14
aS'-sink'
p15
aS'-deadargelim'
p16
aS'-loops'
p17
aS'-ipsccp'
p18
aS'-loop-idiom'
p19
aS'-loop-reduce'
p20
aS'-correlated-propagation'
p21
aS'-scalarrepl-ssa'
p22
aS'-memdep'
p23
aS'-loop-deletion'
p24
aS'-globaldce'
p25
aS'-gvn'
p26
aS'-no-aa'
p27
aS'-globalopt'
p28
aS'-constmerge'
p29
aS'-tailcallelim'
p30
aS'-constprop'
p31
asS'fitness'
p32
I1030
s.