(dp0
S'seq'
p1
(lp2
S'-instcombine'
p3
aS'-scalar-evolution'
p4
aS'-early-cse'
p5
aS'-instsimplify'
p6
aS'-loop-rotate'
p7
aS'-lowerinvoke'
p8
aS'-inline'
p9
aS'-loop-idiom'
p10
aS'-argpromotion'
p11
aS'-dce'
p12
aS'-constmerge'
p13
aS'-globalopt'
p14
aS'-strip-dead-prototypes'
p15
aS'-reassociate'
p16
aS'-adce'
p17
aS'-die'
p18
aS'-inline'
p19
aS'-functionattrs'
p20
aS'-sccp'
p21
aS'-constmerge'
p22
aS'-ipsccp'
p23
aS'-licm'
p24
asS'fitness'
p25
I1104
s.