(dp0
S'seq'
p1
(lp2
S'-scalarrepl'
p3
aS'-instsimplify'
p4
aS'-lowerinvoke'
p5
aS'-domtree'
p6
aS'-indvars'
p7
aS'-inline'
p8
aS'-prune-eh'
p9
aS'-loops'
p10
aS'-ipsccp'
p11
aS'-loop-idiom'
p12
aS'-loop-rotate'
p13
aS'-loop-reduce'
p14
aS'-correlated-propagation'
p15
aS'-loop-deletion'
p16
aS'-globaldce'
p17
aS'-gvn'
p18
aS'-no-aa'
p19
aS'-globalopt'
p20
aS'-constmerge'
p21
aS'-tailcallelim'
p22
aS'-constprop'
p23
asS'fitness'
p24
I1795
s.