(dp0
S'seq'
p1
(lp2
S'-loop-deletion'
p3
aS'-codegenprepare'
p4
aS'-targetlibinfo'
p5
aS'-functionattrs'
p6
aS'-sccp'
p7
aS'-adce'
p8
aS'-constmerge'
p9
aS'-loop-simplify'
p10
aS'-lazy-value-info'
p11
aS'-globaldce'
p12
aS'-no-aa'
p13
aS'-adce'
p14
aS'-sccp'
p15
aS'-scalarrepl'
p16
aS'-loop-unroll'
p17
aS'-partial-inliner'
p18
aS'-scalar-evolution'
p19
aS'-early-cse'
p20
aS'-instsimplify'
p21
aS'-lowerinvoke'
p22
asS'fitness'
p23
I985
s.