(dp0
S'seq'
p1
(lp2
S'-scalarrepl'
p3
aS'-loop-idiom'
p4
aS'-argpromotion'
p5
aS'-dce'
p6
aS'-scalar-evolution'
p7
aS'-reassociate'
p8
aS'-deadargelim'
p9
aS'-loop-unroll'
p10
aS'-die'
p11
aS'-memdep'
p12
aS'-inline'
p13
aS'-functionattrs'
p14
aS'-sccp'
p15
aS'-adce'
p16
aS'-lowerinvoke'
p17
aS'-constmerge'
p18
asS'fitness'
p19
I1759
s.