(dp0
S'seq'
p1
(lp2
S'-scalarrepl'
p3
aS'-early-cse'
p4
aS'-instsimplify'
p5
aS'-loop-rotate'
p6
aS'-lowerinvoke'
p7
aS'-partial-inliner'
p8
aS'-domtree'
p9
aS'-lazy-value-info'
p10
aS'-prune-eh'
p11
aS'-loops'
p12
aS'-ipsccp'
p13
aS'-reassociate'
p14
aS'-loop-idiom'
p15
aS'-memdep'
p16
aS'-loop-deletion'
p17
aS'-globaldce'
p18
aS'-gvn'
p19
aS'-adce'
p20
aS'-no-aa'
p21
aS'-globalopt'
p22
aS'-constmerge'
p23
aS'-tailcallelim'
p24
aS'-deadargelim'
p25
aS'-constprop'
p26
asS'fitness'
p27
I494
s.