(dp0
S'seq'
p1
(lp2
S'-scalarrepl'
p3
aS'-early-cse'
p4
aS'-loop-rotate'
p5
aS'-lowerinvoke'
p6
aS'-lcssa'
p7
aS'-loop-idiom'
p8
aS'-constmerge'
p9
aS'-argpromotion'
p10
aS'-constmerge'
p11
aS'-reassociate'
p12
aS'-adce'
p13
aS'-die'
p14
aS'-inline'
p15
aS'-functionattrs'
p16
aS'-memdep'
p17
aS'-sccp'
p18
asS'fitness'
p19
I3921
s.