(dp0
S'seq'
p1
(lp2
S'-instcombine'
p3
aS'-scalarrepl'
p4
aS'-scalar-evolution'
p5
aS'-lower-expect'
p6
aS'-deadargelim'
p7
aS'-instsimplify'
p8
aS'-loop-rotate'
p9
aS'-lowerinvoke'
p10
aS'-loop-idiom'
p11
aS'-argpromotion'
p12
aS'-dce'
p13
aS'-constmerge'
p14
aS'-reassociate'
p15
aS'-basiccg'
p16
aS'-loop-idiom'
p17
aS'-inline'
p18
aS'-functionattrs'
p19
aS'-globaldce'
p20
aS'-adce'
p21
aS'-sccp'
p22
aS'-loop-simplify'
p23
asS'fitness'
p24
I1107
s.