(dp0
S'seq'
p1
(lp2
S'-scalarrepl'
p3
aS'-gvn'
p4
aS'-scalarrepl-ssa'
p5
aS'-deadargelim'
p6
aS'-globaldce'
p7
aS'-loop-deletion'
p8
aS'-loop-instsimplify'
p9
aS'-instsimplify'
p10
aS'-sink'
p11
asS'fitness'
p12
I753
s.