(dp0
S'seq'
p1
(lp2
S'-gvn'
p3
aS'-basiccg'
p4
aS'-instsimplify'
p5
aS'-memdep'
p6
aS'-loweratomic'
p7
aS'-constmerge'
p8
aS'-jump-threading'
p9
aS'-globalopt'
p10
aS'-tailcallelim'
p11
aS'-basicaa'
p12
aS'-functionattrs'
p13
asS'fitness'
p14
I750
s.