(dp0
S'seq'
p1
(lp2
S'-scalarrepl'
p3
aS'-gvn'
p4
aS'-loop-rotate'
p5
aS'-instsimplify'
p6
aS'-constprop'
p7
aS'-loweratomic'
p8
aS'-adce'
p9
aS'-lowerswitch'
p10
aS'-loops'
p11
aS'-tbaa'
p12
aS'-jump-threading'
p13
asS'fitness'
p14
I3551
s.