(dp0
S'seq'
p1
(lp2
S'-scalarrepl'
p3
aS'-instcombine'
p4
aS'-sink'
p5
aS'-always-inline'
p6
aS'-dse'
p7
aS'-targetlibinfo'
p8
aS'-adce'
p9
aS'-scalarrepl-ssa'
p10
aS'-basicaa'
p11
aS'-globaldce'
p12
aS'-ipsccp'
p13
aS'-prune-eh'
p14
aS'-tbaa'
p15
aS'-inline'
p16
aS'-scalar-evolution'
p17
aS'-lowerswitch'
p18
asS'fitness'
p19
I810
s.