(dp0
S'seq'
p1
(lp2
S'-scalarrepl-ssa'
p3
aS'-scalarrepl'
p4
aS'-gvn'
p5
aS'-loop-rotate'
p6
aS'-codegenprepare'
p7
aS'-adce'
p8
aS'-loops'
p9
aS'-loweratomic'
p10
aS'-instsimplify'
p11
aS'-domtree'
p12
aS'-lowerswitch'
p13
aS'-lower-expect'
p14
aS'-constmerge'
p15
asS'fitness'
p16
I2811
s.