(dp0
S'seq'
p1
(lp2
S'-scalarrepl'
p3
aS'-loop-rotate'
p4
aS'-loops'
p5
aS'-inline'
p6
aS'-constprop'
p7
aS'-adce'
p8
aS'-constmerge'
p9
aS'-sink'
p10
aS'-lowerswitch'
p11
aS'-tbaa'
p12
asS'fitness'
p13
I747
s.