(dp0
S'seq'
p1
(lp2
S'-scalarrepl'
p3
aS'-loop-rotate'
p4
aS'-adce'
p5
aS'-die'
p6
aS'-globaldce'
p7
aS'-dse'
p8
aS'-simplifycfg'
p9
aS'-deadargelim'
p10
aS'-scalarrepl-ssa'
p11
aS'-mergereturn'
p12
aS'-prune-eh'
p13
aS'-constmerge'
p14
aS'-tbaa'
p15
aS'-loops'
p16
aS'-always-inline'
p17
asS'fitness'
p18
I559
s.