(dp0
S'seq'
p1
(lp2
S'-scalarrepl'
p3
aS'-loop-rotate'
p4
aS'-tailcallelim'
p5
aS'-prune-eh'
p6
aS'-sink'
p7
aS'-basicaa'
p8
aS'-deadargelim'
p9
aS'-domtree'
p10
aS'-lowerswitch'
p11
aS'-loops'
p12
asS'fitness'
p13
I2835
s.