(dp0
S'seq'
p1
(lp2
S'-scalarrepl-ssa'
p3
aS'-gvn'
p4
aS'-scalarrepl'
p5
aS'-adce'
p6
aS'-jump-threading'
p7
aS'-constmerge'
p8
aS'-lower-expect'
p9
aS'-instsimplify'
p10
aS'-globaldce'
p11
aS'-lowerswitch'
p12
asS'fitness'
p13
I1963
s.