(dp0
S'seq'
p1
(lp2
S'-scalarrepl'
p3
aS'-gvn'
p4
aS'-instsimplify'
p5
aS'-licm'
p6
aS'-sink'
p7
aS'-mergefunc'
p8
aS'-scalarrepl-ssa'
p9
aS'-no-aa'
p10
aS'-reassociate'
p11
aS'-indvars'
p12
aS'-lowerinvoke'
p13
asS'fitness'
p14
I2107
s.