(dp0
S'seq'
p1
(lp2
S'-instcombine'
p3
aS'-loop-rotate'
p4
aS'-dse'
p5
aS'-ipsccp'
p6
aS'-memcpyopt'
p7
aS'-loop-idiom'
p8
aS'-ipconstprop'
p9
aS'-dce'
p10
aS'-domtree'
p11
aS'-gvn'
p12
aS'-codegenprepare'
p13
aS'-loop-simplify'
p14
aS'-loweratomic'
p15
aS'-targetlibinfo'
p16
asS'fitness'
p17
I0
s.