(dp0
S'seq'
p1
(lp2
S'-scalarrepl'
p3
aS'-gvn'
p4
aS'-tbaa'
p5
aS'-sink'
p6
aS'-loop-unroll'
p7
aS'-scalarrepl-ssa'
p8
aS'-loop-rotate'
p9
aS'-instsimplify'
p10
aS'-jump-threading'
p11
aS'-scalar-evolution'
p12
aS'-loop-instsimplify'
p13
aS'-indvars'
p14
asS'fitness'
p15
I1546
s.