(dp0
S'seq'
p1
(lp2
S'-scalarrepl'
p3
aS'-scalar-evolution'
p4
aS'-domtree'
p5
aS'-tbaa'
p6
aS'-globaldce'
p7
aS'-sink'
p8
aS'-constmerge'
p9
aS'-adce'
p10
aS'-simplifycfg'
p11
asS'fitness'
p12
I505
s.