(dp0
S'seq'
p1
(lp2
S'-gvn'
p3
aS'-instsimplify'
p4
aS'-instcombine'
p5
aS'-dse'
p6
aS'-loop-rotate'
p7
aS'-jump-threading'
p8
aS'-ipsccp'
p9
aS'-loop-unroll'
p10
aS'-memdep'
p11
aS'-loop-instsimplify'
p12
asS'fitness'
p13
I1388192
s.