(dp0
S'seq'
p1
(lp2
S'-scalarrepl'
p3
aS'-gvn'
p4
aS'-instsimplify'
p5
aS'-early-cse'
p6
aS'-partial-inliner'
p7
aS'-tbaa'
p8
aS'-sink'
p9
aS'-globaldce'
p10
aS'-loop-instsimplify'
p11
aS'-inline'
p12
aS'-loop-reduce'
p13
aS'-loop-deletion'
p14
aS'-constmerge'
p15
aS'-always-inline'
p16
aS'-ipconstprop'
p17
asS'fitness'
p18
I835
s.