(dp0
S'seq'
p1
(lp2
S'-gvn'
p3
aS'-instcombine'
p4
aS'-ipsccp'
p5
aS'-loop-simplify'
p6
aS'-loops'
p7
aS'-adce'
p8
aS'-instsimplify'
p9
aS'-simplifycfg'
p10
aS'-functionattrs'
p11
aS'-globaldce'
p12
aS'-loop-rotate'
p13
aS'-indvars'
p14
aS'-loop-idiom'
p15
asS'fitness'
p16
I10562
s.