(dp0
S'seq'
p1
(lp2
S'-scalarrepl'
p3
aS'-loop-rotate'
p4
aS'-inline'
p5
aS'-tailcallelim'
p6
aS'-tbaa'
p7
aS'-loops'
p8
aS'-partial-inliner'
p9
aS'-instcombine'
p10
aS'-deadargelim'
p11
aS'-sink'
p12
asS'fitness'
p13
I1900
s.