(dp0
S'seq'
p1
(lp2
S'-scalarrepl'
p3
aS'-gvn'
p4
aS'-sink'
p5
aS'-loop-rotate'
p6
aS'-functionattrs'
p7
aS'-loop-instsimplify'
p8
aS'-loweratomic'
p9
aS'-instsimplify'
p10
aS'-jump-threading'
p11
aS'-loop-unroll'
p12
asS'fitness'
p13
I1981
s.