(dp0
S'seq'
p1
(lp2
S'-scalarrepl'
p3
aS'-gvn'
p4
aS'-tbaa'
p5
aS'-instcombine'
p6
aS'-codegenprepare'
p7
aS'-inline'
p8
aS'-instsimplify'
p9
aS'-loop-reduce'
p10
aS'-lcssa'
p11
aS'-sink'
p12
aS'-scalar-evolution'
p13
aS'-memcpyopt'
p14
aS'-deadargelim'
p15
asS'fitness'
p16
I894
s.