(dp0
S'seq'
p1
(lp2
S'-scalarrepl'
p3
aS'-instsimplify'
p4
aS'-loop-rotate'
p5
aS'-scalar-evolution'
p6
aS'-lowerinvoke'
p7
aS'-prune-eh'
p8
aS'-memdep'
p9
aS'-partial-inliner'
p10
asS'fitness'
p11
I0
s.