(dp0
S'seq'
p1
(lp2
S'-scalarrepl'
p3
aS'-indvars'
p4
aS'-globaldce'
p5
aS'-scalar-evolution'
p6
aS'-domtree'
p7
aS'-memdep'
p8
aS'-early-cse'
p9
aS'-loop-unroll'
p10
aS'-lowerinvoke'
p11
asS'fitness'
p12
I3647
s.