(dp0
S'sad_16x16.c'
p1
(lp2
(lp3
S'sad_8x8.c'
p4
aF0.150943396226415
aa(lp5
S'yc_demux_0.c'
p6
aF0.150943396226415
aa(lp7
S'yc_demux_1.c'
p8
aF0.150943396226415
aa(lp9
S'wave_vert.c'
p10
aF0.206349206349206
aa(lp11
S'wave_horz.c'
p12
aF0.26984126984127
aa(lp13
S'thr_gt2max.c'
p14
aF0.283018867924528
aa(lp15
S'thr_gt2thr.c'
p16
aF0.283018867924528
aa(lp17
S'thr_le2min.c'
p18
aF0.283018867924528
aa(lp19
S'thr_le2thr.c'
p20
aF0.283018867924528
aa(lp21
S'sobel.c'
p22
aF0.338461538461538
aa(lp23
S'ycbcr422p_.c'
p24
aF0.493975903614458
aasS'dilate_bin.c'
p25
(lp26
(lp27
S'erode_bin.c'
p28
aF0.121621621621622
aa(lp29
S'wave_vert.c'
p30
aF0.328767123287671
aa(lp31
S'wave_horz.c'
p32
aF0.342465753424658
aa(lp33
S'mad_16x16.c'
p34
aF0.356164383561644
aa(lp35
S'mad_8x8.c'
p36
aF0.356164383561644
aa(lp37
S'median_3x3.c'
p38
aF0.36986301369863
aa(lp39
S'sobel.c'
p40
aF0.36986301369863
aa(lp41
S'errdif_bin.c'
p42
aF0.383561643835616
aa(lp43
S'histogram.c'
p44
aF0.383561643835616
aa(lp45
S'perimeter.c'
p46
aF0.383561643835616
aa(lp47
S'quantize.c'
p48
aF0.383561643835616
aa(lp49
S'yc_demux_0.c'
p50
aF0.383561643835616
aa(lp51
S'yc_demux_1.c'
p52
aF0.383561643835616
aa(lp53
S'thr_gt2max.c'
p54
aF0.410958904109589
aa(lp55
S'thr_gt2thr.c'
p56
aF0.410958904109589
aa(lp57
S'thr_le2thr.c'
p58
aF0.410958904109589
aa(lp59
S'pix_expand.c'
p60
aF0.424657534246575
aa(lp61
S'thr_le2min.c'
p62
aF0.424657534246575
aa(lp63
S'pix_sat.c'
p64
aF0.438356164383562
aa(lp65
S'sad_16x16.c'
p66
aF0.438356164383562
aa(lp67
S'sad_8x8.c'
p68
aF0.438356164383562
aa(lp69
S'ycbcr422p_.c'
p70
aF0.457831325301205
aa(lp71
S'idct_8x8_0.c'
p72
aF0.567307692307692
aa(lp73
S'fdct_8x8.c'
p74
aF0.6328125
aa(lp75
S'mpeg2_vld0.c'
p76
aF0.751515151515151
aa(lp77
S'mpeg2_vld1.c'
p78
aF0.770053475935829
aasS'pix_expand.c'
p79
(lp80
(lp81
S'pix_sat.c'
p82
aF0.104166666666667
aa(lp83
S'thr_gt2max.c'
p84
aF0.104166666666667
aa(lp85
S'thr_gt2thr.c'
p86
aF0.104166666666667
aa(lp87
S'thr_le2thr.c'
p88
aF0.104166666666667
aa(lp89
S'thr_le2min.c'
p90
aF0.145833333333333
aa(lp91
S'yc_demux_0.c'
p92
aF0.192307692307692
aa(lp93
S'yc_demux_1.c'
p94
aF0.192307692307692
aa(lp95
S'sad_16x16.c'
p96
aF0.264150943396226
aa(lp97
S'sad_8x8.c'
p98
aF0.264150943396226
aa(lp99
S'wave_vert.c'
p100
aF0.285714285714286
aa(lp101
S'quantize.c'
p102
aF0.296875
aa(lp103
S'wave_horz.c'
p104
aF0.301587301587302
aa(lp105
S'sobel.c'
p106
aF0.353846153846154
aa(lp107
S'ycbcr422p_.c'
p108
aF0.493975903614458
aasS'errdif_bin.c'
p109
(lp110
(lp111
S'wave_vert.c'
p112
aF0.265625
aa(lp113
S'quantize.c'
p114
aF0.296875
aa(lp115
S'pix_sat.c'
p116
aF0.3125
aa(lp117
S'thr_gt2max.c'
p118
aF0.3125
aa(lp119
S'thr_gt2thr.c'
p120
aF0.3125
aa(lp121
S'thr_le2thr.c'
p122
aF0.3125
aa(lp123
S'wave_horz.c'
p124
aF0.3125
aa(lp125
S'mad_16x16.c'
p126
aF0.313432835820896
aa(lp127
S'mad_8x8.c'
p128
aF0.313432835820896
aa(lp129
S'pix_expand.c'
p130
aF0.328125
aa(lp131
S'thr_le2min.c'
p132
aF0.328125
aa(lp133
S'yc_demux_0.c'
p134
aF0.328125
aa(lp135
S'yc_demux_1.c'
p136
aF0.328125
aa(lp137
S'perimeter.c'
p138
aF0.333333333333333
aa(lp139
S'sobel.c'
p140
aF0.338461538461538
aa(lp141
S'median_3x3.c'
p142
aF0.366197183098592
aa(lp143
S'histogram.c'
p144
aF0.376811594202899
aa(lp145
S'sad_16x16.c'
p146
aF0.390625
aa(lp147
S'sad_8x8.c'
p148
aF0.390625
aa(lp149
S'ycbcr422p_.c'
p150
aF0.506024096385542
aa(lp151
S'idct_8x8_0.c'
p152
aF0.596153846153846
aa(lp153
S'fdct_8x8.c'
p154
aF0.640625
aa(lp155
S'mpeg2_vld0.c'
p156
aF0.763636363636364
aa(lp157
S'mpeg2_vld1.c'
p158
aF0.770053475935829
aasS'idct_8x8_0.c'
p159
(lp160
(lp161
S'wave_vert.c'
p162
aF0.519230769230769
aa(lp163
S'mad_16x16.c'
p164
aF0.538461538461538
aa(lp165
S'mad_8x8.c'
p166
aF0.538461538461538
aa(lp167
S'perimeter.c'
p168
aF0.538461538461538
aa(lp169
S'wave_horz.c'
p170
aF0.538461538461538
aa(lp171
S'median_3x3.c'
p172
aF0.557692307692308
aa(lp173
S'sobel.c'
p174
aF0.557692307692308
aa(lp175
S'yc_demux_0.c'
p176
aF0.567307692307692
aa(lp177
S'yc_demux_1.c'
p178
aF0.567307692307692
aa(lp179
S'quantize.c'
p180
aF0.576923076923077
aa(lp181
S'thr_gt2max.c'
p182
aF0.576923076923077
aa(lp183
S'thr_gt2thr.c'
p184
aF0.576923076923077
aa(lp185
S'thr_le2thr.c'
p186
aF0.576923076923077
aa(lp187
S'thr_le2min.c'
p188
aF0.586538461538462
aa(lp189
S'pix_expand.c'
p190
aF0.596153846153846
aa(lp191
S'sad_16x16.c'
p192
aF0.596153846153846
aa(lp193
S'sad_8x8.c'
p194
aF0.596153846153846
aa(lp195
S'ycbcr422p_.c'
p196
aF0.596153846153846
aa(lp197
S'pix_sat.c'
p198
aF0.605769230769231
aa(lp199
S'mpeg2_vld0.c'
p200
aF0.727272727272727
aa(lp201
S'mpeg2_vld1.c'
p202
aF0.759358288770054
aasS'sobel.c'
p203
(lp204
(lp205
S'wave_horz.c'
p206
aF0.261538461538462
aa(lp207
S'wave_vert.c'
p208
aF0.261538461538462
aa(lp209
S'yc_demux_0.c'
p210
aF0.307692307692308
aa(lp211
S'yc_demux_1.c'
p212
aF0.307692307692308
aa(lp213
S'thr_gt2max.c'
p214
aF0.323076923076923
aa(lp215
S'thr_gt2thr.c'
p216
aF0.338461538461538
aa(lp217
S'thr_le2thr.c'
p218
aF0.338461538461538
aa(lp219
S'thr_le2min.c'
p220
aF0.353846153846154
aa(lp221
S'ycbcr422p_.c'
p222
aF0.421686746987952
aasS'histogram.c'
p223
(lp224
(lp225
S'wave_vert.c'
p226
aF0.231884057971014
aa(lp227
S'wave_horz.c'
p228
aF0.246376811594203
aa(lp229
S'mad_16x16.c'
p230
aF0.289855072463768
aa(lp231
S'mad_8x8.c'
p232
aF0.289855072463768
aa(lp233
S'sobel.c'
p234
aF0.289855072463768
aa(lp235
S'perimeter.c'
p236
aF0.304347826086957
aa(lp237
S'quantize.c'
p238
aF0.304347826086957
aa(lp239
S'yc_demux_0.c'
p240
aF0.318840579710145
aa(lp241
S'yc_demux_1.c'
p242
aF0.318840579710145
aa(lp243
S'thr_gt2max.c'
p244
aF0.347826086956522
aa(lp245
S'thr_gt2thr.c'
p246
aF0.347826086956522
aa(lp247
S'thr_le2thr.c'
p248
aF0.347826086956522
aa(lp249
S'pix_expand.c'
p250
aF0.36231884057971
aa(lp251
S'pix_sat.c'
p252
aF0.36231884057971
aa(lp253
S'sad_16x16.c'
p254
aF0.376811594202899
aa(lp255
S'sad_8x8.c'
p256
aF0.376811594202899
aa(lp257
S'median_3x3.c'
p258
aF0.394366197183099
aa(lp259
S'thr_le2min.c'
p260
aF0.405797101449275
aa(lp261
S'ycbcr422p_.c'
p262
aF0.44578313253012
aa(lp263
S'idct_8x8_0.c'
p264
aF0.567307692307692
aa(lp265
S'mpeg2_vld0.c'
p266
aF0.739393939393939
aa(lp267
S'mpeg2_vld1.c'
p268
aF0.775401069518717
aasS'mpeg2_vld1.c'
p269
(lp270
(lp271
S'perimeter.c'
p272
aF0.732620320855615
aa(lp273
S'quantize.c'
p274
aF0.737967914438503
aa(lp275
S'wave_vert.c'
p276
aF0.74331550802139
aa(lp277
S'ycbcr422p_.c'
p278
aF0.748663101604278
aa(lp279
S'sad_16x16.c'
p280
aF0.754010695187166
aa(lp281
S'sad_8x8.c'
p282
aF0.754010695187166
aa(lp283
S'yc_demux_0.c'
p284
aF0.754010695187166
aa(lp285
S'yc_demux_1.c'
p286
aF0.754010695187166
aa(lp287
S'wave_horz.c'
p288
aF0.759358288770054
aa(lp289
S'sobel.c'
p290
aF0.764705882352941
aa(lp291
S'thr_le2min.c'
p292
aF0.770053475935829
aa(lp293
S'pix_sat.c'
p294
aF0.775401069518717
aa(lp295
S'thr_gt2max.c'
p296
aF0.775401069518717
aa(lp297
S'thr_gt2thr.c'
p298
aF0.775401069518717
aa(lp299
S'thr_le2thr.c'
p300
aF0.775401069518717
aa(lp301
S'pix_expand.c'
p302
aF0.780748663101604
aasS'pix_sat.c'
p303
(lp304
(lp305
S'thr_gt2max.c'
p306
aF0.145833333333333
aa(lp307
S'thr_gt2thr.c'
p308
aF0.145833333333333
aa(lp309
S'thr_le2min.c'
p310
aF0.145833333333333
aa(lp311
S'thr_le2thr.c'
p312
aF0.145833333333333
aa(lp313
S'yc_demux_0.c'
p314
aF0.211538461538462
aa(lp315
S'yc_demux_1.c'
p316
aF0.211538461538462
aa(lp317
S'wave_vert.c'
p318
aF0.285714285714286
aa(lp319
S'wave_horz.c'
p320
aF0.301587301587302
aa(lp321
S'sad_16x16.c'
p322
aF0.320754716981132
aa(lp323
S'sad_8x8.c'
p324
aF0.320754716981132
aa(lp325
S'quantize.c'
p326
aF0.328125
aa(lp327
S'sobel.c'
p328
aF0.338461538461538
aa(lp329
S'ycbcr422p_.c'
p330
aF0.493975903614458
aasS'conv_3x3.c'
p331
(lp332
(lp333
S'wave_vert.c'
p334
aF0.232876712328767
aa(lp335
S'dilate_bin.c'
p336
aF0.301369863013699
aa(lp337
S'erode_bin.c'
p338
aF0.310810810810811
aa(lp339
S'histogram.c'
p340
aF0.315068493150685
aa(lp341
S'perimeter.c'
p342
aF0.315068493150685
aa(lp343
S'quantize.c'
p344
aF0.315068493150685
aa(lp345
S'wave_horz.c'
p346
aF0.315068493150685
aa(lp347
S'corr_3x3.c'
p348
aF0.328767123287671
aa(lp349
S'mad_16x16.c'
p350
aF0.328767123287671
aa(lp351
S'mad_8x8.c'
p352
aF0.328767123287671
aa(lp353
S'sobel.c'
p354
aF0.328767123287671
aa(lp355
S'yc_demux_0.c'
p356
aF0.328767123287671
aa(lp357
S'yc_demux_1.c'
p358
aF0.328767123287671
aa(lp359
S'median_3x3.c'
p360
aF0.342465753424658
aa(lp361
S'sad_16x16.c'
p362
aF0.342465753424658
aa(lp363
S'sad_8x8.c'
p364
aF0.342465753424658
aa(lp365
S'corr_gen.c'
p366
aF0.356164383561644
aa(lp367
S'errdif_bin.c'
p368
aF0.36986301369863
aa(lp369
S'pix_expand.c'
p370
aF0.383561643835616
aa(lp371
S'thr_gt2max.c'
p372
aF0.383561643835616
aa(lp373
S'thr_gt2thr.c'
p374
aF0.383561643835616
aa(lp375
S'thr_le2min.c'
p376
aF0.383561643835616
aa(lp377
S'thr_le2thr.c'
p378
aF0.383561643835616
aa(lp379
S'pix_sat.c'
p380
aF0.397260273972603
aa(lp381
S'ycbcr422p_.c'
p382
aF0.409638554216867
aa(lp383
S'idct_8x8_0.c'
p384
aF0.557692307692308
aa(lp385
S'fdct_8x8.c'
p386
aF0.6015625
aa(lp387
S'mpeg2_vld0.c'
p388
aF0.733333333333333
aa(lp389
S'mpeg2_vld1.c'
p390
aF0.764705882352941
aasS'thr_le2min.c'
p391
(lp392
(lp393
S'thr_le2thr.c'
p394
aF0.104166666666667
aa(lp395
S'yc_demux_0.c'
p396
aF0.211538461538462
aa(lp397
S'yc_demux_1.c'
p398
aF0.211538461538462
aa(lp399
S'wave_vert.c'
p400
aF0.285714285714286
aa(lp401
S'wave_horz.c'
p402
aF0.317460317460317
aa(lp403
S'ycbcr422p_.c'
p404
aF0.481927710843373
aasS'corr_3x3.c'
p405
(lp406
(lp407
S'corr_gen.c'
p408
aF0.2
aa(lp409
S'thr_gt2thr.c'
p410
aF0.2
aa(lp411
S'thr_le2thr.c'
p412
aF0.2
aa(lp413
S'wave_vert.c'
p414
aF0.206349206349206
aa(lp415
S'pix_expand.c'
p416
aF0.218181818181818
aa(lp417
S'pix_sat.c'
p418
aF0.218181818181818
aa(lp419
S'thr_gt2max.c'
p420
aF0.218181818181818
aa(lp421
S'yc_demux_0.c'
p422
aF0.218181818181818
aa(lp423
S'yc_demux_1.c'
p424
aF0.218181818181818
aa(lp425
S'sad_16x16.c'
p426
aF0.236363636363636
aa(lp427
S'sad_8x8.c'
p428
aF0.236363636363636
aa(lp429
S'thr_le2min.c'
p430
aF0.236363636363636
aa(lp431
S'wave_horz.c'
p432
aF0.238095238095238
aa(lp433
S'quantize.c'
p434
aF0.296875
aa(lp435
S'mad_16x16.c'
p436
aF0.298507462686567
aa(lp437
S'mad_8x8.c'
p438
aF0.298507462686567
aa(lp439
S'errdif_bin.c'
p440
aF0.3125
aa(lp441
S'sobel.c'
p442
aF0.323076923076923
aa(lp443
S'histogram.c'
p444
aF0.333333333333333
aa(lp445
S'perimeter.c'
p446
aF0.333333333333333
aa(lp447
S'erode_bin.c'
p448
aF0.391891891891892
aa(lp449
S'median_3x3.c'
p450
aF0.394366197183099
aa(lp451
S'dilate_bin.c'
p452
aF0.410958904109589
aa(lp453
S'ycbcr422p_.c'
p454
aF0.481927710843373
aa(lp455
S'idct_8x8_0.c'
p456
aF0.586538461538462
aa(lp457
S'fdct_8x8.c'
p458
aF0.640625
aa(lp459
S'mpeg2_vld1.c'
p460
aF0.764705882352941
aa(lp461
S'mpeg2_vld0.c'
p462
aF0.76969696969697
aasS'perimeter.c'
p463
(lp464
(lp465
S'wave_vert.c'
p466
aF0.227272727272727
aa(lp467
S'quantize.c'
p468
aF0.272727272727273
aa(lp469
S'sobel.c'
p470
aF0.272727272727273
aa(lp471
S'wave_horz.c'
p472
aF0.272727272727273
aa(lp473
S'yc_demux_0.c'
p474
aF0.303030303030303
aa(lp475
S'yc_demux_1.c'
p476
aF0.303030303030303
aa(lp477
S'sad_16x16.c'
p478
aF0.318181818181818
aa(lp479
S'sad_8x8.c'
p480
aF0.318181818181818
aa(lp481
S'thr_gt2max.c'
p482
aF0.333333333333333
aa(lp483
S'thr_gt2thr.c'
p484
aF0.333333333333333
aa(lp485
S'thr_le2thr.c'
p486
aF0.333333333333333
aa(lp487
S'thr_le2min.c'
p488
aF0.348484848484849
aa(lp489
S'pix_expand.c'
p490
aF0.363636363636364
aa(lp491
S'pix_sat.c'
p492
aF0.363636363636364
aa(lp493
S'ycbcr422p_.c'
p494
aF0.457831325301205
aasS'wave_vert.c'
p495
(lp496
(lp497
S'yc_demux_0.c'
p498
aF0.206349206349206
aa(lp499
S'yc_demux_1.c'
p500
aF0.206349206349206
aa(lp501
S'ycbcr422p_.c'
p502
aF0.409638554216867
aasS'mpeg2_vld0.c'
p503
(lp504
(lp505
S'mpeg2_vld1.c'
p506
aF0.438502673796791
aa(lp507
S'wave_vert.c'
p508
aF0.709090909090909
aa(lp509
S'perimeter.c'
p510
aF0.715151515151515
aa(lp511
S'wave_horz.c'
p512
aF0.727272727272727
aa(lp513
S'yc_demux_0.c'
p514
aF0.727272727272727
aa(lp515
S'yc_demux_1.c'
p516
aF0.727272727272727
aa(lp517
S'sobel.c'
p518
aF0.733333333333333
aa(lp519
S'ycbcr422p_.c'
p520
aF0.733333333333333
aa(lp521
S'quantize.c'
p522
aF0.745454545454545
aa(lp523
S'sad_16x16.c'
p524
aF0.745454545454545
aa(lp525
S'sad_8x8.c'
p526
aF0.745454545454545
aa(lp527
S'thr_le2min.c'
p528
aF0.745454545454545
aa(lp529
S'thr_gt2max.c'
p530
aF0.751515151515151
aa(lp531
S'thr_gt2thr.c'
p532
aF0.751515151515151
aa(lp533
S'thr_le2thr.c'
p534
aF0.751515151515151
aa(lp535
S'pix_expand.c'
p536
aF0.763636363636364
aa(lp537
S'pix_sat.c'
p538
aF0.763636363636364
aasS'wave_horz.c'
p539
(lp540
(lp541
S'wave_vert.c'
p542
aF0.126984126984127
aa(lp543
S'yc_demux_0.c'
p544
aF0.238095238095238
aa(lp545
S'yc_demux_1.c'
p546
aF0.238095238095238
aa(lp547
S'ycbcr422p_.c'
p548
aF0.457831325301205
aasS'boundary.c'
p549
(lp550
(lp551
S'pix_sat.c'
p552
aF0.156862745098039
aa(lp553
S'pix_expand.c'
p554
aF0.176470588235294
aa(lp555
S'thr_gt2max.c'
p556
aF0.176470588235294
aa(lp557
S'thr_gt2thr.c'
p558
aF0.176470588235294
aa(lp559
S'thr_le2thr.c'
p560
aF0.176470588235294
aa(lp561
S'yc_demux_0.c'
p562
aF0.192307692307692
aa(lp563
S'yc_demux_1.c'
p564
aF0.192307692307692
aa(lp565
S'thr_le2min.c'
p566
aF0.196078431372549
aa(lp567
S'corr_gen.c'
p568
aF0.240740740740741
aa(lp569
S'sad_16x16.c'
p570
aF0.283018867924528
aa(lp571
S'sad_8x8.c'
p572
aF0.283018867924528
aa(lp573
S'wave_vert.c'
p574
aF0.285714285714286
aa(lp575
S'corr_3x3.c'
p576
aF0.309090909090909
aa(lp577
S'wave_horz.c'
p578
aF0.333333333333333
aa(lp579
S'sobel.c'
p580
aF0.338461538461538
aa(lp581
S'errdif_bin.c'
p582
aF0.34375
aa(lp583
S'quantize.c'
p584
aF0.34375
aa(lp585
S'mad_16x16.c'
p586
aF0.358208955223881
aa(lp587
S'mad_8x8.c'
p588
aF0.358208955223881
aa(lp589
S'histogram.c'
p590
aF0.36231884057971
aa(lp591
S'perimeter.c'
p592
aF0.363636363636364
aa(lp593
S'conv_3x3.c'
p594
aF0.383561643835616
aa(lp595
S'median_3x3.c'
p596
aF0.436619718309859
aa(lp597
S'dilate_bin.c'
p598
aF0.438356164383562
aa(lp599
S'erode_bin.c'
p600
aF0.445945945945946
aa(lp601
S'ycbcr422p_.c'
p602
aF0.518072289156627
aa(lp603
S'idct_8x8_0.c'
p604
aF0.615384615384615
aa(lp605
S'fdct_8x8.c'
p606
aF0.671875
aa(lp607
S'mpeg2_vld0.c'
p608
aF0.806060606060606
aa(lp609
S'mpeg2_vld1.c'
p610
aF0.807486631016043
aasS'yc_demux_0.c'
p611
(lp612
(lp613
S'yc_demux_1.c'
p614
aF0.057692307692308
aa(lp615
S'ycbcr422p_.c'
p616
aF0.457831325301205
aasS'quantize.c'
p617
(lp618
(lp619
S'wave_vert.c'
p620
aF0.203125
aa(lp621
S'sobel.c'
p622
aF0.246153846153846
aa(lp623
S'wave_horz.c'
p624
aF0.25
aa(lp625
S'yc_demux_0.c'
p626
aF0.28125
aa(lp627
S'yc_demux_1.c'
p628
aF0.28125
aa(lp629
S'thr_gt2max.c'
p630
aF0.296875
aa(lp631
S'thr_gt2thr.c'
p632
aF0.296875
aa(lp633
S'thr_le2thr.c'
p634
aF0.296875
aa(lp635
S'thr_le2min.c'
p636
aF0.3125
aa(lp637
S'sad_16x16.c'
p638
aF0.328125
aa(lp639
S'sad_8x8.c'
p640
aF0.328125
aa(lp641
S'ycbcr422p_.c'
p642
aF0.44578313253012
aasS'thr_gt2thr.c'
p643
(lp644
(lp645
S'thr_le2thr.c'
p646
aF0.166666666666667
aa(lp647
S'yc_demux_0.c'
p648
aF0.173076923076923
aa(lp649
S'yc_demux_1.c'
p650
aF0.173076923076923
aa(lp651
S'thr_le2min.c'
p652
aF0.208333333333333
aa(lp653
S'wave_vert.c'
p654
aF0.285714285714286
aa(lp655
S'wave_horz.c'
p656
aF0.317460317460317
aa(lp657
S'ycbcr422p_.c'
p658
aF0.493975903614458
aasS'fdct_8x8.c'
p659
(lp660
(lp661
S'idct_8x8_0.c'
p662
aF0.546875
aa(lp663
S'wave_vert.c'
p664
aF0.59375
aa(lp665
S'mad_16x16.c'
p666
aF0.6015625
aa(lp667
S'mad_8x8.c'
p668
aF0.6015625
aa(lp669
S'median_3x3.c'
p670
aF0.609375
aa(lp671
S'quantize.c'
p672
aF0.6171875
aa(lp673
S'sobel.c'
p674
aF0.6171875
aa(lp675
S'wave_horz.c'
p676
aF0.6171875
aa(lp677
S'histogram.c'
p678
aF0.625
aa(lp679
S'perimeter.c'
p680
aF0.6328125
aa(lp681
S'ycbcr422p_.c'
p682
aF0.6328125
aa(lp683
S'yc_demux_0.c'
p684
aF0.640625
aa(lp685
S'yc_demux_1.c'
p686
aF0.640625
aa(lp687
S'sad_16x16.c'
p688
aF0.65625
aa(lp689
S'sad_8x8.c'
p690
aF0.65625
aa(lp691
S'thr_gt2max.c'
p692
aF0.65625
aa(lp693
S'thr_gt2thr.c'
p694
aF0.65625
aa(lp695
S'thr_le2min.c'
p696
aF0.65625
aa(lp697
S'thr_le2thr.c'
p698
aF0.65625
aa(lp699
S'pix_expand.c'
p700
aF0.671875
aa(lp701
S'pix_sat.c'
p702
aF0.671875
aa(lp703
S'mpeg2_vld0.c'
p704
aF0.715151515151515
aa(lp705
S'mpeg2_vld1.c'
p706
aF0.732620320855615
aasS'thr_gt2max.c'
p707
(lp708
(lp709
S'thr_gt2thr.c'
p710
aF0.166666666666667
aa(lp711
S'thr_le2thr.c'
p712
aF0.166666666666667
aa(lp713
S'yc_demux_0.c'
p714
aF0.173076923076923
aa(lp715
S'yc_demux_1.c'
p716
aF0.173076923076923
aa(lp717
S'thr_le2min.c'
p718
aF0.208333333333333
aa(lp719
S'wave_vert.c'
p720
aF0.301587301587302
aa(lp721
S'wave_horz.c'
p722
aF0.317460317460317
aa(lp723
S'ycbcr422p_.c'
p724
aF0.493975903614458
aasS'mad_16x16.c'
p725
(lp726
(lp727
S'mad_8x8.c'
p728
aF0.104477611940299
aa(lp729
S'wave_vert.c'
p730
aF0.208955223880597
aa(lp731
S'wave_horz.c'
p732
aF0.223880597014925
aa(lp733
S'sad_16x16.c'
p734
aF0.298507462686567
aa(lp735
S'sad_8x8.c'
p736
aF0.298507462686567
aa(lp737
S'sobel.c'
p738
aF0.298507462686567
aa(lp739
S'yc_demux_0.c'
p740
aF0.298507462686567
aa(lp741
S'yc_demux_1.c'
p742
aF0.298507462686567
aa(lp743
S'quantize.c'
p744
aF0.313432835820896
aa(lp745
S'perimeter.c'
p746
aF0.328358208955224
aa(lp747
S'median_3x3.c'
p748
aF0.338028169014085
aa(lp749
S'thr_gt2max.c'
p750
aF0.343283582089552
aa(lp751
S'pix_expand.c'
p752
aF0.358208955223881
aa(lp753
S'thr_gt2thr.c'
p754
aF0.358208955223881
aa(lp755
S'thr_le2thr.c'
p756
aF0.358208955223881
aa(lp757
S'pix_sat.c'
p758
aF0.373134328358209
aa(lp759
S'thr_le2min.c'
p760
aF0.373134328358209
aa(lp761
S'ycbcr422p_.c'
p762
aF0.44578313253012
aa(lp763
S'mpeg2_vld1.c'
p764
aF0.737967914438503
aa(lp765
S'mpeg2_vld0.c'
p766
aF0.739393939393939
aasS'erode_bin.c'
p767
(lp768
(lp769
S'wave_horz.c'
p770
aF0.324324324324324
aa(lp771
S'wave_vert.c'
p772
aF0.324324324324324
aa(lp773
S'perimeter.c'
p774
aF0.351351351351351
aa(lp775
S'quantize.c'
p776
aF0.351351351351351
aa(lp777
S'mad_16x16.c'
p778
aF0.364864864864865
aa(lp779
S'mad_8x8.c'
p780
aF0.364864864864865
aa(lp781
S'median_3x3.c'
p782
aF0.378378378378378
aa(lp783
S'sobel.c'
p784
aF0.378378378378378
aa(lp785
S'yc_demux_0.c'
p786
aF0.378378378378378
aa(lp787
S'yc_demux_1.c'
p788
aF0.378378378378378
aa(lp789
S'errdif_bin.c'
p790
aF0.391891891891892
aa(lp791
S'histogram.c'
p792
aF0.391891891891892
aa(lp793
S'thr_gt2max.c'
p794
aF0.405405405405405
aa(lp795
S'thr_gt2thr.c'
p796
aF0.405405405405405
aa(lp797
S'thr_le2thr.c'
p798
aF0.405405405405405
aa(lp799
S'ycbcr422p_.c'
p800
aF0.409638554216867
aa(lp801
S'pix_expand.c'
p802
aF0.418918918918919
aa(lp803
S'sad_16x16.c'
p804
aF0.418918918918919
aa(lp805
S'sad_8x8.c'
p806
aF0.418918918918919
aa(lp807
S'thr_le2min.c'
p808
aF0.418918918918919
aa(lp809
S'pix_sat.c'
p810
aF0.432432432432432
aa(lp811
S'idct_8x8_0.c'
p812
aF0.557692307692308
aa(lp813
S'fdct_8x8.c'
p814
aF0.640625
aa(lp815
S'mpeg2_vld0.c'
p816
aF0.739393939393939
aa(lp817
S'mpeg2_vld1.c'
p818
aF0.748663101604278
aasS'corr_gen.c'
p819
(lp820
(lp821
S'yc_demux_0.c'
p822
aF0.166666666666667
aa(lp823
S'yc_demux_1.c'
p824
aF0.166666666666667
aa(lp825
S'sad_16x16.c'
p826
aF0.203703703703704
aa(lp827
S'sad_8x8.c'
p828
aF0.203703703703704
aa(lp829
S'wave_vert.c'
p830
aF0.206349206349206
aa(lp831
S'pix_sat.c'
p832
aF0.222222222222222
aa(lp833
S'thr_gt2max.c'
p834
aF0.222222222222222
aa(lp835
S'wave_horz.c'
p836
aF0.222222222222222
aa(lp837
S'pix_expand.c'
p838
aF0.240740740740741
aa(lp839
S'thr_gt2thr.c'
p840
aF0.240740740740741
aa(lp841
S'thr_le2min.c'
p842
aF0.240740740740741
aa(lp843
S'thr_le2thr.c'
p844
aF0.240740740740741
aa(lp845
S'mad_16x16.c'
p846
aF0.26865671641791
aa(lp847
S'mad_8x8.c'
p848
aF0.26865671641791
aa(lp849
S'quantize.c'
p850
aF0.28125
aa(lp851
S'perimeter.c'
p852
aF0.287878787878788
aa(lp853
S'histogram.c'
p854
aF0.304347826086957
aa(lp855
S'errdif_bin.c'
p856
aF0.328125
aa(lp857
S'sobel.c'
p858
aF0.338461538461538
aa(lp859
S'dilate_bin.c'
p860
aF0.383561643835616
aa(lp861
S'erode_bin.c'
p862
aF0.391891891891892
aa(lp863
S'median_3x3.c'
p864
aF0.408450704225352
aa(lp865
S'ycbcr422p_.c'
p866
aF0.44578313253012
aa(lp867
S'idct_8x8_0.c'
p868
aF0.557692307692308
aa(lp869
S'fdct_8x8.c'
p870
aF0.6484375
aa(lp871
S'mpeg2_vld0.c'
p872
aF0.751515151515151
aa(lp873
S'mpeg2_vld1.c'
p874
aF0.770053475935829
aasS'thr_le2thr.c'
p875
(lp876
(lp877
S'yc_demux_0.c'
p878
aF0.173076923076923
aa(lp879
S'yc_demux_1.c'
p880
aF0.173076923076923
aa(lp881
S'wave_vert.c'
p882
aF0.285714285714286
aa(lp883
S'wave_horz.c'
p884
aF0.317460317460317
aa(lp885
S'ycbcr422p_.c'
p886
aF0.493975903614458
aasS'yc_demux_1.c'
p887
(lp888
(lp889
S'ycbcr422p_.c'
p890
aF0.457831325301205
aasS'sad_8x8.c'
p891
(lp892
(lp893
S'yc_demux_0.c'
p894
aF0.150943396226415
aa(lp895
S'yc_demux_1.c'
p896
aF0.150943396226415
aa(lp897
S'wave_vert.c'
p898
aF0.206349206349206
aa(lp899
S'wave_horz.c'
p900
aF0.26984126984127
aa(lp901
S'thr_gt2max.c'
p902
aF0.283018867924528
aa(lp903
S'thr_gt2thr.c'
p904
aF0.283018867924528
aa(lp905
S'thr_le2min.c'
p906
aF0.283018867924528
aa(lp907
S'thr_le2thr.c'
p908
aF0.283018867924528
aa(lp909
S'sobel.c'
p910
aF0.338461538461538
aa(lp911
S'ycbcr422p_.c'
p912
aF0.493975903614458
aasS'median_3x3.c'
p913
(lp914
(lp915
S'quantize.c'
p916
aF0.323943661971831
aa(lp917
S'perimeter.c'
p918
aF0.352112676056338
aa(lp919
S'wave_horz.c'
p920
aF0.352112676056338
aa(lp921
S'wave_vert.c'
p922
aF0.352112676056338
aa(lp923
S'thr_gt2max.c'
p924
aF0.366197183098592
aa(lp925
S'thr_gt2thr.c'
p926
aF0.366197183098592
aa(lp927
S'thr_le2thr.c'
p928
aF0.366197183098592
aa(lp929
S'sobel.c'
p930
aF0.380281690140845
aa(lp931
S'thr_le2min.c'
p932
aF0.394366197183099
aa(lp933
S'yc_demux_0.c'
p934
aF0.408450704225352
aa(lp935
S'yc_demux_1.c'
p936
aF0.408450704225352
aa(lp937
S'pix_expand.c'
p938
aF0.422535211267606
aa(lp939
S'pix_sat.c'
p940
aF0.422535211267606
aa(lp941
S'sad_16x16.c'
p942
aF0.464788732394366
aa(lp943
S'sad_8x8.c'
p944
aF0.464788732394366
aa(lp945
S'ycbcr422p_.c'
p946
aF0.469879518072289
aa(lp947
S'mpeg2_vld1.c'
p948
aF0.764705882352941
aa(lp949
S'mpeg2_vld0.c'
p950
aF0.781818181818182
aasS'mad_8x8.c'
p951
(lp952
(lp953
S'wave_vert.c'
p954
aF0.208955223880597
aa(lp955
S'wave_horz.c'
p956
aF0.223880597014925
aa(lp957
S'sad_16x16.c'
p958
aF0.298507462686567
aa(lp959
S'sad_8x8.c'
p960
aF0.298507462686567
aa(lp961
S'sobel.c'
p962
aF0.298507462686567
aa(lp963
S'yc_demux_0.c'
p964
aF0.298507462686567
aa(lp965
S'yc_demux_1.c'
p966
aF0.298507462686567
aa(lp967
S'quantize.c'
p968
aF0.313432835820896
aa(lp969
S'perimeter.c'
p970
aF0.328358208955224
aa(lp971
S'median_3x3.c'
p972
aF0.338028169014085
aa(lp973
S'thr_gt2max.c'
p974
aF0.343283582089552
aa(lp975
S'pix_expand.c'
p976
aF0.358208955223881
aa(lp977
S'thr_gt2thr.c'
p978
aF0.358208955223881
aa(lp979
S'thr_le2thr.c'
p980
aF0.358208955223881
aa(lp981
S'pix_sat.c'
p982
aF0.373134328358209
aa(lp983
S'thr_le2min.c'
p984
aF0.373134328358209
aa(lp985
S'ycbcr422p_.c'
p986
aF0.44578313253012
aa(lp987
S'mpeg2_vld1.c'
p988
aF0.737967914438503
aa(lp989
S'mpeg2_vld0.c'
p990
aF0.739393939393939
aas.