(lp0
S'-scalarrepl'
p1
aS'-partial-inliner'
p2
aS'-domtree'
p3
aS'-indvars'
p4
aS'-lazy-value-info'
p5
aS'-prune-eh'
p6
aS'-sink'
p7
aS'-loops'
p8
aS'-ipsccp'
p9
aS'-reassociate'
p10
aS'-loop-idiom'
p11
aS'-loop-unroll'
p12
aS'-loop-reduce'
p13
aS'-correlated-propagation'
p14
aS'-scalarrepl-ssa'
p15
aS'-loop-rotate'
p16
aS'-memdep'
p17
aS'-loop-deletion'
p18
aS'-globaldce'
p19
aS'-gvn'
p20
aS'-no-aa'
p21
aS'-globalopt'
p22
aS'-constmerge'
p23
aS'-tailcallelim'
p24
aS'-constprop'
p25
a.