(lp0
S'-scalarrepl'
p1
aS'-loop-unroll'
p2
aS'-scalar-evolution'
p3
aS'-early-cse'
p4
aS'-instsimplify'
p5
aS'-loop-rotate'
p6
aS'-lowerinvoke'
p7
aS'-loops'
p8
aS'-mergefunc'
p9
aS'-loop-idiom'
p10
aS'-argpromotion'
p11
aS'-dce'
p12
aS'-constmerge'
p13
aS'-reassociate'
p14
aS'-die'
p15
aS'-inline'
p16
aS'-functionattrs'
p17
aS'-sccp'
p18
a.