(lp0
S'-scalarrepl-ssa'
p1
aS'-loop-idiom'
p2
aS'-gvn'
p3
aS'-ipsccp'
p4
aS'-globalopt'
p5
aS'-loop-rotate'
p6
aS'-lower-expect'
p7
aS'-codegenprepare'
p8
aS'-loops'
p9
aS'-memcpyopt'
p10
aS'-loop-deletion'
p11
aS'-scalarrepl'
p12
aS'-argpromotion'
p13
aS'-dce'
p14
aS'-constmerge'
p15
aS'-scalar-evolution'
p16
aS'-reassociate'
p17
aS'-die'
p18
aS'-inline'
p19
aS'-functionattrs'
p20
aS'-sccp'
p21
aS'-lowerinvoke'
p22
a.