(lp0
S'-scalarrepl'
p1
aS'-loop-idiom'
p2
aS'-argpromotion'
p3
aS'-dce'
p4
aS'-constmerge'
p5
aS'-scalar-evolution'
p6
aS'-reassociate'
p7
aS'-die'
p8
aS'-inline'
p9
aS'-functionattrs'
p10
aS'-sccp'
p11
aS'-lowerinvoke'
p12
a.