(dp0
S'seq'
p1
(lp2
S'-scalarrepl'
p3
aS'-loop-idiom'
p4
aS'-argpromotion'
p5
aS'-dce'
p6
aS'-constmerge'
p7
aS'-scalar-evolution'
p8
aS'-reassociate'
p9
aS'-inline'
p10
aS'-functionattrs'
p11
aS'-lowerinvoke'
p12
asS'fitness'
p13
I983
s.