(dp0
S'seq'
p1
(lp2
S'-scalarrepl'
p3
aS'-loop-idiom'
p4
aS'-argpromotion'
p5
aS'-reassociate'
p6
aS'-die'
p7
aS'-inline'
p8
aS'-functionattrs'
p9
aS'-sccp'
p10
aS'-lowerinvoke'
p11
asS'fitness'
p12
I1547
s.