(dp0
S'seq'
p1
(lp2
S'-gvn'
p3
aS'-tbaa'
p4
aS'-loweratomic'
p5
aS'-loop-deletion'
p6
aS'-mergefunc'
p7
aS'-functionattrs'
p8
aS'-deadargelim'
p9
aS'-no-aa'
p10
aS'-licm'
p11
aS'-instsimplify'
p12
aS'-jump-threading'
p13
aS'-memcpyopt'
p14
asS'fitness'
p15
I1179
s.