(dp0
S'seq'
p1
(lp2
S'-scalarrepl'
p3
aS'-gvn'
p4
aS'-scalar-evolution'
p5
aS'-functionattrs'
p6
aS'-loop-instsimplify'
p7
aS'-loop-unroll'
p8
aS'-jump-threading'
p9
aS'-loweratomic'
p10
aS'-sink'
p11
aS'-memcpyopt'
p12
aS'-no-aa'
p13
aS'-mergefunc'
p14
aS'-constprop'
p15
asS'fitness'
p16
I5753
s.