(dp0
S'seq'
p1
(lp2
S'-scalarrepl-ssa'
p3
aS'-loop-idiom'
p4
aS'-gvn'
p5
aS'-ipsccp'
p6
aS'-globalopt'
p7
aS'-loop-rotate'
p8
aS'-lower-expect'
p9
aS'-codegenprepare'
p10
aS'-loops'
p11
aS'-memcpyopt'
p12
aS'-loop-deletion'
p13
aS'-scalarrepl'
p14
aS'-mergereturn'
p15
aS'-loop-simplify'
p16
aS'-basiccg'
p17
aS'-loop-instsimplify'
p18
aS'-jump-threading'
p19
aS'-loweratomic'
p20
aS'-die'
p21
aS'-early-cse'
p22
aS'-domtree'
p23
aS'-simplifycfg'
p24
aS'-globaldce'
p25
aS'-prune-eh'
p26
aS'-ipconstprop'
p27
aS'-argpromotion'
p28
aS'-dce'
p29
aS'-loop-reduce'
p30
aS'-lazy-value-info'
p31
aS'-lowerinvoke'
p32
asS'fitness'
p33
I749
s.