(dp0
S'seq'
p1
(lp2
S'-scalarrepl'
p3
aS'-loop-idiom'
p4
aS'-dce'
p5
aS'-scalar-evolution'
p6
aS'-reassociate'
p7
aS'-die'
p8
aS'-inline'
p9
aS'-functionattrs'
p10
aS'-lowerinvoke'
p11
asS'fitness'
p12
I688
s.