(dp0
S'seq'
p1
(lp2
S'-scalarrepl-ssa'
p3
aS'-loop-deletion'
p4
aS'-targetlibinfo'
p5
aS'-sink'
p6
aS'-functionattrs'
p7
aS'-sccp'
p8
aS'-adce'
p9
aS'-constmerge'
p10
aS'-loop-simplify'
p11
aS'-lazy-value-info'
p12
aS'-no-aa'
p13
aS'-scalarrepl'
p14
aS'-loops'
p15
aS'-mergefunc'
p16
aS'-simplifycfg'
p17
aS'-globaldce'
p18
aS'-basiccg'
p19
aS'-indvars'
p20
aS'-prune-eh'
p21
aS'-loweratomic'
p22
aS'-inline'
p23
aS'-ipconstprop'
p24
aS'-lower-expect'
p25
aS'-mergereturn'
p26
aS'-argpromotion'
p27
aS'-dce'
p28
aS'-loop-reduce'
p29
aS'-lowerinvoke'
p30
aS'-early-cse'
p31
aS'-globalopt'
p32
asS'fitness'
p33
I486
s.