(dp0
S'seq'
p1
(lp2
S'-scalarrepl'
p3
aS'-loop-unroll'
p4
aS'-scalar-evolution'
p5
aS'-early-cse'
p6
aS'-instsimplify'
p7
aS'-lowerinvoke'
p8
aS'-loops'
p9
aS'-mergefunc'
p10
aS'-loop-idiom'
p11
aS'-argpromotion'
p12
aS'-dce'
p13
aS'-constmerge'
p14
aS'-reassociate'
p15
aS'-die'
p16
aS'-inline'
p17
aS'-functionattrs'
p18
aS'-sccp'
p19
asS'fitness'
p20
I3037
s.