(dp0
S'seq'
p1
(lp2
S'scalarrepl'
p3
aS'-partial-inliner'
p4
aS'-domtree'
p5
aS'-indvars'
p6
aS'-lazy-value-info'
p7
aS'-prune-eh'
p8
aS'-sink'
p9
aS'-loops'
p10
aS'-ipsccp'
p11
aS'-reassociate'
p12
aS'-loop-idiom'
p13
aS'-loop-unroll'
p14
aS'-loop-reduce'
p15
aS'-correlated-propagation'
p16
aS'-scalarrepl-ssa'
p17
aS'-loop-rotate'
p18
aS'-memdep'
p19
aS'-loop-deletion'
p20
aS'-globaldce'
p21
aS'-gvn'
p22
aS'-no-aa'
p23
aS'-scalarrepl'
p24
aS'-globalopt'
p25
aS'-constmerge'
p26
aS'-tailcallelim'
p27
aS'-constprop'
p28
asS'fitness'
p29
I1684
s.