(dp0
S'seq'
p1
(lp2
S'-scalarrepl-ssa'
p3
aS'-codegenprepare'
p4
aS'-loop-rotate'
p5
aS'-targetlibinfo'
p6
aS'-sink'
p7
aS'-sccp'
p8
aS'-adce'
p9
aS'-constmerge'
p10
aS'-loop-simplify'
p11
aS'-lazy-value-info'
p12
aS'-scalarrepl'
p13
aS'-loop-unroll'
p14
aS'-scalar-evolution'
p15
aS'-early-cse'
p16
aS'-instsimplify'
p17
aS'-lowerinvoke'
p18
asS'fitness'
p19
I793
s.