(dp0
S'seq'
p1
(lp2
S'-scalarrepl'
p3
aS'-early-cse'
p4
aS'-instsimplify'
p5
aS'-loop-rotate'
p6
aS'-lowerinvoke'
p7
aS'-loops'
p8
aS'-mergefunc'
p9
aS'-partial-inliner'
p10
aS'-domtree'
p11
aS'-indvars'
p12
aS'-lazy-value-info'
p13
aS'-prune-eh'
p14
aS'-sink'
p15
aS'-ipsccp'
p16
aS'-loop-idiom'
p17
aS'-loop-reduce'
p18
aS'-correlated-propagation'
p19
aS'-scalarrepl-ssa'
p20
aS'-memdep'
p21
aS'-loop-deletion'
p22
aS'-globaldce'
p23
aS'-gvn'
p24
aS'-no-aa'
p25
aS'-globalopt'
p26
aS'-constmerge'
p27
aS'-tailcallelim'
p28
aS'-constprop'
p29
asS'fitness'
p30
I812
s.