(dp0
S'seq'
p1
(lp2
S'-scalarrepl'
p3
aS'-indvars'
p4
aS'-lazy-value-info'
p5
aS'-prune-eh'
p6
aS'-reassociate'
p7
aS'-loop-idiom'
p8
aS'-loop-unroll'
p9
aS'-loop-reduce'
p10
aS'-correlated-propagation'
p11
aS'-loop-rotate'
p12
aS'-memdep'
p13
aS'-loop-deletion'
p14
aS'-globaldce'
p15
aS'-gvn'
p16
aS'-no-aa'
p17
aS'-constmerge'
p18
aS'-tailcallelim'
p19
aS'-constprop'
p20
asS'fitness'
p21
I1133
s.