(dp0
S'seq'
p1
(lp2
S'-scalarrepl-ssa'
p3
aS'-codegenprepare'
p4
aS'-loop-rotate'
p5
aS'-sink'
p6
aS'-functionattrs'
p7
aS'-sccp'
p8
aS'-adce'
p9
aS'-constmerge'
p10
aS'-loop-simplify'
p11
aS'-lazy-value-info'
p12
aS'-no-aa'
p13
aS'-scalarrepl'
p14
aS'-loop-unroll'
p15
aS'-scalar-evolution'
p16
aS'-early-cse'
p17
aS'-lowerinvoke'
p18
aS'scalarrepl'
p19
aS'-partial-inliner'
p20
aS'-domtree'
p21
aS'-indvars'
p22
aS'-prune-eh'
p23
aS'-loops'
p24
aS'-ipsccp'
p25
aS'-reassociate'
p26
aS'-loop-idiom'
p27
aS'-loop-reduce'
p28
aS'-correlated-propagation'
p29
aS'-memdep'
p30
aS'-globaldce'
p31
aS'-gvn'
p32
aS'-globalopt'
p33
aS'-tailcallelim'
p34
aS'-constprop'
p35
asS'fitness'
p36
I374
s.