(dp0
S'seq'
p1
(lp2
S'-scalarrepl'
p3
aS'-loop-unroll'
p4
aS'-scalar-evolution'
p5
aS'-early-cse'
p6
aS'-instsimplify'
p7
aS'-loop-rotate'
p8
aS'-lowerinvoke'
p9
aS'scalarrepl'
p10
aS'-partial-inliner'
p11
aS'-domtree'
p12
aS'-indvars'
p13
aS'-lazy-value-info'
p14
aS'-prune-eh'
p15
aS'-reassociate'
p16
aS'-loop-idiom'
p17
aS'-loop-reduce'
p18
aS'-correlated-propagation'
p19
aS'-scalarrepl-ssa'
p20
aS'-memdep'
p21
aS'-loop-deletion'
p22
aS'-gvn'
p23
aS'-no-aa'
p24
aS'-globalopt'
p25
aS'-constmerge'
p26
aS'-tailcallelim'
p27
aS'-constprop'
p28
asS'fitness'
p29
I1801
s.