(dp0
S'seq'
p1
(lp2
S'-scalarrepl'
p3
aS'-loop-unroll'
p4
aS'-lowerinvoke'
p5
aS'-partial-inliner'
p6
aS'-domtree'
p7
aS'-indvars'
p8
aS'-lazy-value-info'
p9
aS'-prune-eh'
p10
aS'-sink'
p11
aS'-loops'
p12
aS'-ipsccp'
p13
aS'-reassociate'
p14
aS'-loop-idiom'
p15
aS'-loop-reduce'
p16
aS'-correlated-propagation'
p17
aS'-memdep'
p18
aS'-loop-deletion'
p19
aS'-globaldce'
p20
aS'-gvn'
p21
aS'-no-aa'
p22
aS'-globalopt'
p23
aS'-constmerge'
p24
aS'-tailcallelim'
p25
aS'-constprop'
p26
asS'fitness'
p27
I3725
s.
