(dp0
S'seq'
p1
(lp2
S'-codegenprepare'
p3
aS'-loop-rotate'
p4
aS'-targetlibinfo'
p5
aS'-sink'
p6
aS'-functionattrs'
p7
aS'-sccp'
p8
aS'-adce'
p9
aS'-loop-simplify'
p10
aS'-lazy-value-info'
p11
aS'-no-aa'
p12
aS'-scalarrepl'
p13
aS'-scalar-evolution'
p14
aS'-early-cse'
p15
aS'-instsimplify'
p16
aS'-lowerinvoke'
p17
asS'fitness'
p18
I1000
s.