(dp0
S'seq'
p1
(lp2
S'-scalarrepl-ssa'
p3
aS'-loop-deletion'
p4
aS'-codegenprepare'
p5
aS'-loop-rotate'
p6
aS'-targetlibinfo'
p7
aS'-sink'
p8
aS'-functionattrs'
p9
aS'-adce'
p10
aS'-constmerge'
p11
aS'-loop-simplify'
p12
aS'-lazy-value-info'
p13
aS'-no-aa'
p14
aS'-scalarrepl'
p15
aS'-loop-unroll'
p16
aS'-scalar-evolution'
p17
aS'-early-cse'
p18
aS'-instsimplify'
p19
aS'-lowerinvoke'
p20
asS'fitness'
p21
I817
s.