(dp0
S'seq'
p1
(lp2
S'-scalarrepl'
p3
aS'-scalar-evolution'
p4
aS'-early-cse'
p5
aS'-lowerinvoke'
p6
aS'scalarrepl'
p7
aS'-partial-inliner'
p8
aS'-domtree'
p9
aS'-lazy-value-info'
p10
aS'-prune-eh'
p11
aS'-sink'
p12
aS'-ipsccp'
p13
aS'-loop-reduce'
p14
aS'-correlated-propagation'
p15
aS'-scalarrepl-ssa'
p16
aS'-memdep'
p17
aS'-loop-deletion'
p18
aS'-globaldce'
p19
aS'-gvn'
p20
aS'-no-aa'
p21
aS'-globalopt'
p22
aS'-constmerge'
p23
aS'-tailcallelim'
p24
aS'-constprop'
p25
asS'fitness'
p26
I472
s.