(dp0
S'seq'
p1
(lp2
S'-scalarrepl'
p3
aS'-early-cse'
p4
aS'-instsimplify'
p5
aS'-loop-rotate'
p6
aS'-lowerinvoke'
p7
aS'-partial-inliner'
p8
aS'-domtree'
p9
aS'-lazy-value-info'
p10
aS'-prune-eh'
p11
aS'-sink'
p12
aS'-loops'
p13
aS'-ipsccp'
p14
aS'-reassociate'
p15
aS'-loop-idiom'
p16
aS'-loop-reduce'
p17
aS'-correlated-propagation'
p18
aS'-scalarrepl-ssa'
p19
aS'-memdep'
p20
aS'-globaldce'
p21
aS'-gvn'
p22
aS'-no-aa'
p23
aS'-globalopt'
p24
aS'-constmerge'
p25
aS'-tailcallelim'
p26
aS'-constprop'
p27
aS'-argpromotion'
p28
aS'-dce'
p29
aS'-die'
p30
aS'-inline'
p31
aS'-functionattrs'
p32
aS'-sccp'
p33
asS'fitness'
p34
I828
s.