(dp0
S'seq'
p1
(lp2
S'-scalarrepl'
p3
aS'-loop-unroll'
p4
aS'-scalar-evolution'
p5
aS'-early-cse'
p6
aS'-instsimplify'
p7
aS'-loop-rotate'
p8
aS'-lowerinvoke'
p9
aS'-loops'
p10
aS'scalarrepl'
p11
aS'-partial-inliner'
p12
aS'-domtree'
p13
aS'-indvars'
p14
aS'-lazy-value-info'
p15
aS'-prune-eh'
p16
aS'-ipsccp'
p17
aS'-reassociate'
p18
aS'-loop-idiom'
p19
aS'-loop-reduce'
p20
aS'-correlated-propagation'
p21
aS'-scalarrepl-ssa'
p22
aS'-memdep'
p23
aS'-loop-deletion'
p24
aS'-globaldce'
p25
aS'-gvn'
p26
aS'-no-aa'
p27
aS'-globalopt'
p28
aS'-constmerge'
p29
aS'-tailcallelim'
p30
aS'-constprop'
p31
asS'fitness'
p32
I812
s.