(dp0
S'seq'
p1
(lp2
S'-scalarrepl'
p3
aS'-scalar-evolution'
p4
aS'-early-cse'
p5
aS'-instsimplify'
p6
aS'-lowerinvoke'
p7
aS'-partial-inliner'
p8
aS'-indvars'
p9
aS'-prune-eh'
p10
aS'-sink'
p11
aS'-loops'
p12
aS'-ipsccp'
p13
aS'-reassociate'
p14
aS'-loop-idiom'
p15
aS'-loop-reduce'
p16
aS'-correlated-propagation'
p17
aS'-scalarrepl-ssa'
p18
aS'-memdep'
p19
aS'-loop-deletion'
p20
aS'-globaldce'
p21
aS'-gvn'
p22
aS'-no-aa'
p23
aS'-globalopt'
p24
aS'-constmerge'
p25
aS'-tailcallelim'
p26
asS'fitness'
p27
I808
s.