(dp0
S'seq'
p1
(lp2
S'-scalarrepl'
p3
aS'-loop-unroll'
p4
aS'-scalar-evolution'
p5
aS'-early-cse'
p6
aS'-loop-rotate'
p7
aS'-lowerinvoke'
p8
aS'scalarrepl'
p9
aS'-domtree'
p10
aS'-indvars'
p11
aS'-prune-eh'
p12
aS'-sink'
p13
aS'-loops'
p14
aS'-ipsccp'
p15
aS'-reassociate'
p16
aS'-loop-idiom'
p17
aS'-loop-reduce'
p18
aS'-correlated-propagation'
p19
aS'-scalarrepl-ssa'
p20
aS'-memdep'
p21
aS'-loop-deletion'
p22
aS'-globaldce'
p23
aS'-gvn'
p24
aS'-no-aa'
p25
aS'-globalopt'
p26
aS'-constmerge'
p27
aS'-tailcallelim'
p28
aS'-constprop'
p29
aS'-argpromotion'
p30
aS'-dce'
p31
aS'-die'
p32
aS'-inline'
p33
aS'-functionattrs'
p34
aS'-sccp'
p35
asS'fitness'
p36
I795
s.