(dp0
S'seq'
p1
(lp2
S'-scalarrepl'
p3
aS'-domtree'
p4
aS'-indvars'
p5
aS'-lazy-value-info'
p6
aS'-sink'
p7
aS'-loops'
p8
aS'-ipsccp'
p9
aS'-reassociate'
p10
aS'-loop-idiom'
p11
aS'-loop-unroll'
p12
aS'-loop-reduce'
p13
aS'-correlated-propagation'
p14
aS'-scalarrepl-ssa'
p15
aS'-loop-rotate'
p16
aS'-loop-deletion'
p17
aS'-globaldce'
p18
aS'-gvn'
p19
aS'-no-aa'
p20
aS'-globalopt'
p21
aS'-constmerge'
p22
aS'-tailcallelim'
p23
aS'-constprop'
p24
asS'fitness'
p25
I712
s.