(dp0
S'seq'
p1
(lp2
S'-scalarrepl'
p3
aS'-loop-unroll'
p4
aS'-early-cse'
p5
aS'-instsimplify'
p6
aS'-loop-rotate'
p7
aS'-lowerinvoke'
p8
aS'-loop-idiom'
p9
aS'-constmerge'
p10
aS'-reassociate'
p11
aS'-die'
p12
aS'-functionattrs'
p13
aS'-sccp'
p14
asS'fitness'
p15
I3834
s.