(dp0
S'seq'
p1
(lp2
S'-scalarrepl'
p3
aS'-loop-unroll'
p4
aS'-scalar-evolution'
p5
aS'-early-cse'
p6
aS'-instsimplify'
p7
aS'-lowerinvoke'
p8
aS'scalarrepl'
p9
aS'-partial-inliner'
p10
aS'-domtree'
p11
aS'-indvars'
p12
aS'-lazy-value-info'
p13
aS'-prune-eh'
p14
aS'-sink'
p15
aS'-loops'
p16
aS'-ipsccp'
p17
aS'-reassociate'
p18
aS'-loop-idiom'
p19
aS'-loop-reduce'
p20
aS'-correlated-propagation'
p21
aS'-scalarrepl-ssa'
p22
aS'-memdep'
p23
aS'-loop-deletion'
p24
aS'-gvn'
p25
aS'-no-aa'
p26
aS'-globalopt'
p27
aS'-constmerge'
p28
aS'-tailcallelim'
p29
aS'-constprop'
p30
asS'fitness'
p31
I856
s.