(dp0
S'seq'
p1
(lp2
S'-scalarrepl'
p3
aS'-scalar-evolution'
p4
aS'-early-cse'
p5
aS'-instsimplify'
p6
aS'-loop-rotate'
p7
aS'-lowerinvoke'
p8
aS'-loops'
p9
aS'-mergefunc'
p10
asS'fitness'
p11
I7980
s.