(dp0
S'seq'
p1
(lp2
S'-loop-unroll'
p3
aS'-instsimplify'
p4
aS'-loop-rotate'
p5
aS'-partial-inliner'
p6
aS'-domtree'
p7
aS'-indvars'
p8
aS'-lazy-value-info'
p9
aS'-prune-eh'
p10
aS'-sink'
p11
aS'-loops'
p12
aS'-ipsccp'
p13
aS'-reassociate'
p14
aS'-loop-idiom'
p15
aS'-loop-reduce'
p16
aS'-correlated-propagation'
p17
aS'-scalarrepl-ssa'
p18
aS'-memdep'
p19
aS'-loop-deletion'
p20
aS'-globaldce'
p21
aS'-gvn'
p22
aS'-no-aa'
p23
aS'-globalopt'
p24
aS'-constmerge'
p25
aS'-tailcallelim'
p26
aS'-constprop'
p27
asS'fitness'
p28
I0
s.