(dp0
S'seq'
p1
(lp2
S'-scalarrepl'
p3
aS'-loop-idiom'
p4
aS'-argpromotion'
p5
aS'-constmerge'
p6
aS'-reassociate'
p7
aS'-die'
p8
aS'-inline'
p9
aS'-functionattrs'
p10
aS'-sccp'
p11
aS'-lowerinvoke'
p12
asS'fitness'
p13
I1052
s.