(dp0
S'seq'
p1
(lp2
S'-scalarrepl'
p3
aS'-loop-idiom'
p4
aS'-dce'
p5
aS'-constmerge'
p6
aS'-reassociate'
p7
aS'-die'
p8
aS'-functionattrs'
p9
aS'-sccp'
p10
aS'-lowerinvoke'
p11
asS'fitness'
p12
I908
s.