(dp0
S'seq'
p1
(lp2
S'-scalarrepl-ssa'
p3
aS'-loop-idiom'
p4
aS'-gvn'
p5
aS'-ipsccp'
p6
aS'-globalopt'
p7
aS'-loop-rotate'
p8
aS'-lower-expect'
p9
aS'-codegenprepare'
p10
aS'-loops'
p11
aS'-memcpyopt'
p12
aS'-loop-deletion'
p13
aS'-scalarrepl'
p14
aS'-loop-simplify'
p15
aS'-loop-instsimplify'
p16
aS'-jump-threading'
p17
aS'-die'
p18
aS'-indvars'
p19
aS'-early-cse'
p20
aS'-domtree'
p21
aS'-argpromotion'
p22
aS'-dce'
p23
aS'-constmerge'
p24
aS'-scalar-evolution'
p25
aS'-reassociate'
p26
aS'-inline'
p27
aS'-sccp'
p28
aS'-lowerinvoke'
p29
asS'fitness'
p30
I2970
s.