(dp0
S'seq'
p1
(lp2
S'-scalarrepl'
p3
aS'-early-cse'
p4
aS'-loop-rotate'
p5
aS'-lowerinvoke'
p6
aS'scalarrepl'
p7
aS'-partial-inliner'
p8
aS'-domtree'
p9
aS'-indvars'
p10
aS'-lazy-value-info'
p11
aS'-sink'
p12
aS'-reassociate'
p13
aS'-loop-idiom'
p14
aS'-loop-reduce'
p15
aS'-correlated-propagation'
p16
aS'-scalarrepl-ssa'
p17
aS'-memdep'
p18
aS'-loop-deletion'
p19
aS'-globaldce'
p20
aS'-gvn'
p21
aS'-no-aa'
p22
aS'-globalopt'
p23
aS'-constmerge'
p24
aS'-constprop'
p25
asS'fitness'
p26
I833
s.