(dp0
S'seq'
p1
(lp2
S'-scalar-evolution'
p3
aS'-instsimplify'
p4
aS'-loop-rotate'
p5
aS'-lowerinvoke'
p6
aS'-loops'
p7
aS'scalarrepl'
p8
aS'-partial-inliner'
p9
aS'-domtree'
p10
aS'-indvars'
p11
aS'-lazy-value-info'
p12
aS'-prune-eh'
p13
aS'-sink'
p14
aS'-ipsccp'
p15
aS'-reassociate'
p16
aS'-loop-idiom'
p17
aS'-loop-reduce'
p18
aS'-scalarrepl-ssa'
p19
aS'-memdep'
p20
aS'-loop-deletion'
p21
aS'-globaldce'
p22
aS'-gvn'
p23
aS'-no-aa'
p24
aS'-globalopt'
p25
aS'-constmerge'
p26
aS'-tailcallelim'
p27
aS'-constprop'
p28
asS'fitness'
p29
I539
s.