(dp0
S'seq'
p1
(lp2
S'-scalarrepl'
p3
aS'-loop-unroll'
p4
aS'-early-cse'
p5
aS'-instsimplify'
p6
aS'-loop-rotate'
p7
aS'-lowerinvoke'
p8
aS'-loops'
p9
aS'-mergefunc'
p10
aS'-partial-inliner'
p11
aS'-domtree'
p12
aS'-prune-eh'
p13
aS'-sink'
p14
aS'-ipsccp'
p15
aS'-loop-idiom'
p16
aS'-loop-reduce'
p17
aS'-correlated-propagation'
p18
aS'-scalarrepl-ssa'
p19
aS'-memdep'
p20
aS'-loop-deletion'
p21
aS'-globaldce'
p22
aS'-gvn'
p23
aS'-no-aa'
p24
aS'-globalopt'
p25
aS'-constmerge'
p26
aS'-tailcallelim'
p27
aS'-constprop'
p28
asS'fitness'
p29
I1337
s.