(dp0
S'seq'
p1
(lp2
S'-scalarrepl'
p3
aS'-loop-unroll'
p4
aS'-loop-rotate'
p5
aS'-loop-idiom'
p6
aS'-argpromotion'
p7
aS'-dce'
p8
aS'-reassociate'
p9
aS'-die'
p10
aS'-inline'
p11
aS'-functionattrs'
p12
aS'-sccp'
p13
asS'fitness'
p14
I886
s.