(dp0
S'seq'
p1
(lp2
S'-scalarrepl-ssa'
p3
aS'-loop-idiom'
p4
aS'-gvn'
p5
aS'-loop-rotate'
p6
aS'-lower-expect'
p7
aS'-codegenprepare'
p8
aS'-loops'
p9
aS'-memcpyopt'
p10
aS'-scalarrepl'
p11
aS'-argpromotion'
p12
aS'-dce'
p13
aS'-constmerge'
p14
aS'-scalar-evolution'
p15
aS'-reassociate'
p16
aS'-die'
p17
aS'-inline'
p18
aS'-functionattrs'
p19
aS'-sccp'
p20
aS'-lowerinvoke'
p21
asS'fitness'
p22
I2992
s.