(dp0
S'seq'
p1
(lp2
S'-scalarrepl'
p3
aS'-scalar-evolution'
p4
aS'-instsimplify'
p5
aS'-loop-rotate'
p6
aS'-lowerinvoke'
p7
aS'-loop-idiom'
p8
aS'-argpromotion'
p9
aS'-dce'
p10
aS'-reassociate'
p11
aS'-die'
p12
aS'-inline'
p13
aS'-functionattrs'
p14
aS'-sccp'
p15
asS'fitness'
p16
I1354
s.