(dp0
S'seq'
p1
(lp2
S'-scalarrepl-ssa'
p3
aS'-dce'
p4
aS'-mergereturn'
p5
aS'-simplifycfg'
p6
aS'-loop-idiom'
p7
aS'-codegenprepare'
p8
aS'-gvn'
p9
aS'-globaldce'
p10
aS'-loop-deletion'
p11
aS'-inline'
p12
aS'-loop-rotate'
p13
aS'-ipconstprop'
p14
aS'-die'
p15
aS'-globalopt'
p16
aS'-argpromotion'
p17
aS'-loweratomic'
p18
aS'-ipsccp'
p19
aS'-domtree'
p20
asS'fitness'
p21
I733
s.