(dp0
S'seq'
p1
(lp2
S'-scalarrepl-ssa'
p3
aS'-prune-eh'
p4
aS'-partial-inliner'
p5
aS'-sink'
p6
aS'-lazy-value-info'
p7
aS'-sccp'
p8
aS'-loop-idiom'
p9
aS'-reassociate'
p10
aS'-no-aa'
p11
aS'-early-cse'
p12
aS'-die'
p13
aS'-loop-unroll'
p14
aS'-loop-reduce'
p15
aS'-scalarrepl'
p16
aS'-loop-rotate'
p17
aS'-tailcallelim'
p18
asS'fitness'
p19
I838
s.