(dp0
S'seq'
p1
(lp2
S'-ipsccp'
p3
aS'-loop-deletion'
p4
aS'-loop-unroll'
p5
aS'-scalarrepl'
p6
aS'-constmerge'
p7
aS'-adce'
p8
aS'-indvars'
p9
aS'-scalar-evolution'
p10
aS'-globaldce'
p11
aS'-functionattrs'
p12
asS'fitness'
p13
I1983
s.