(dp0
S'seq'
p1
(lp2
S'-scalarrepl'
p3
aS'-loop-rotate'
p4
aS'-no-aa'
p5
aS'-tailcallelim'
p6
aS'-globalopt'
p7
aS'-indvars'
p8
aS'-memdep'
p9
aS'-constmerge'
p10
aS'-constprop'
p11
aS'-loop-deletion'
p12
asS'fitness'
p13
I716
s.