(dp0
S'seq'
p1
(lp2
S'-scalarrepl'
p3
aS'-constmerge'
p4
aS'-lowerinvoke'
p5
aS'-globalopt'
p6
aS'-sink'
p7
aS'-loop-deletion'
p8
aS'-loop-rotate'
p9
aS'-gvn'
p10
aS'-globaldce'
p11
aS'-indvars'
p12
aS'-lazy-value-info'
p13
aS'-early-cse'
p14
aS'-domtree'
p15
aS'-tailcallelim'
p16
aS'-prune-eh'
p17
aS'-memdep'
p18
aS'-loops'
p19
aS'-ipsccp'
p20
aS'-loop-idiom'
p21
aS'-partial-inliner'
p22
aS'-no-aa'
p23
aS'-correlated-propagation'
p24
aS'-instsimplify'
p25
aS'-constprop'
p26
aS'-scalarrepl-ssa'
p27
asS'fitness'
p28
I3692
s.