(dp0
S'seq'
p1
(lp2
S'-scalarrepl-ssa'
p3
aS'-loop-rotate'
p4
aS'scalarrepl'
p5
aS'-scalarrepl'
p6
aS'-correlated-propagation'
p7
aS'-scalar-evolution'
p8
aS'-loop-unroll'
p9
aS'-constprop'
p10
aS'-loop-reduce'
p11
aS'-globaldce'
p12
aS'-reassociate'
p13
aS'-domtree'
p14
aS'-no-aa'
p15
aS'-memdep'
p16
aS'-indvars'
p17
aS'-loops'
p18
aS'-sink'
p19
aS'-loop-deletion'
p20
asS'fitness'
p21
I1795
s.