(dp0
S'seq'
p1
(lp2
S'-scalarrepl'
p3
aS'-domtree'
p4
aS'-sink'
p5
aS'-memdep'
p6
aS'-loop-idiom'
p7
aS'-instsimplify'
p8
aS'-prune-eh'
p9
aS'-gvn'
p10
aS'-scalarrepl-ssa'
p11
aS'-mergefunc'
p12
aS'-indvars'
p13
aS'-lazy-value-info'
p14
aS'-no-aa'
p15
aS'-loop-rotate'
p16
aS'-loops'
p17
aS'-early-cse'
p18
aS'scalarrepl'
p19
aS'-reassociate'
p20
aS'-loop-unroll'
p21
aS'-correlated-propagation'
p22
aS'-partial-inliner'
p23
aS'-lowerinvoke'
p24
aS'-loop-reduce'
p25
aS'-loop-deletion'
p26
aS'-ipsccp'
p27
aS'-scalar-evolution'
p28
aS'-tailcallelim'
p29
aS'-globaldce'
p30
aS'-globalopt'
p31
asS'fitness'
p32
I538
s.