(dp0
S'seq'
p1
(lp2
S'-scalarrepl-ssa'
p3
aS'-lazy-value-info'
p4
aS'-globaldce'
p5
aS'-early-cse'
p6
aS'-correlated-propagation'
p7
aS'-instsimplify'
p8
aS'-partial-inliner'
p9
aS'-constprop'
p10
aS'-loop-rotate'
p11
aS'-loops'
p12
aS'-loop-deletion'
p13
aS'-ipsccp'
p14
aS'-indvars'
p15
aS'-memdep'
p16
aS'-reassociate'
p17
aS'-tailcallelim'
p18
aS'-constmerge'
p19
aS'-prune-eh'
p20
aS'-loop-idiom'
p21
aS'scalarrepl'
p22
aS'-globalopt'
p23
aS'-sink'
p24
aS'-gvn'
p25
asS'fitness'
p26
I828
s.