(dp0
S'seq'
p1
(lp2
S'-scalarrepl'
p3
aS'-lowerinvoke'
p4
aS'-early-cse'
p5
aS'-instsimplify'
p6
aS'-scalar-evolution'
p7
aS'-loop-unroll'
p8
aS'-loop-rotate'
p9
aS'-mergefunc'
p10
aS'-loops'
p11
asS'fitness'
p12
I3545
s.