(dp0
S'seq'
p1
(lp2
S'-scalarrepl'
p3
aS'-tailcallelim'
p4
aS'-loop-unroll'
p5
aS'-globalopt'
p6
aS'-sccp'
p7
aS'-scalar-evolution'
p8
aS'-reassociate'
p9
aS'-ipsccp'
p10
aS'-indvars'
p11
aS'-prune-eh'
p12
aS'-memdep'
p13
aS'-adce'
p14
aS'-codegenprepare'
p15
aS'-instsimplify'
p16
aS'-correlated-propagation'
p17
aS'-constmerge'
p18
aS'-lazy-value-info'
p19
aS'-loop-rotate'
p20
aS'-loop-idiom'
p21
aS'-scalarrepl-ssa'
p22
aS'-globaldce'
p23
aS'-domtree'
p24
aS'-targetlibinfo'
p25
aS'-no-aa'
p26
aS'-early-cse'
p27
aS'-loops'
p28
aS'-loop-simplify'
p29
aS'-loop-deletion'
p30
aS'scalarrepl'
p31
asS'fitness'
p32
I360
s.