(dp0
S'seq'
p1
(lp2
S'-scalarrepl'
p3
aS'-loop-rotate'
p4
aS'-loop-simplify'
p5
aS'-early-cse'
p6
aS'-functionattrs'
p7
aS'-lazy-value-info'
p8
aS'-sink'
p9
aS'-targetlibinfo'
p10
aS'-scalarrepl-ssa'
p11
aS'-constmerge'
p12
aS'-adce'
p13
aS'-loop-deletion'
p14
aS'-scalar-evolution'
p15
aS'-codegenprepare'
p16
aS'-sccp'
p17
aS'-loop-unroll'
p18
asS'fitness'
p19
I802
s.