(dp0
S'seq'
p1
(lp2
S'-gvn'
p3
aS'-memdep'
p4
aS'-scalarrepl'
p5
aS'-correlated-propagation'
p6
aS'-ipsccp'
p7
aS'-indvars'
p8
aS'-loop-rotate'
p9
aS'-early-cse'
p10
aS'-loop-idiom'
p11
aS'-instsimplify'
p12
aS'-constprop'
p13
aS'-lowerinvoke'
p14
aS'-partial-inliner'
p15
asS'fitness'
p16
I1
s.