(dp0
S'seq'
p1
(lp2
S'-scalarrepl-ssa'
p3
aS'-loop-unroll'
p4
aS'-ipsccp'
p5
aS'-loop-reduce'
p6
aS'-loop-idiom'
p7
aS'-sink'
p8
aS'-partial-inliner'
p9
aS'-gvn'
p10
aS'-domtree'
p11
aS'-correlated-propagation'
p12
aS'-tailcallelim'
p13
aS'-constprop'
p14
aS'-loop-deletion'
p15
asS'fitness'
p16
I1512
s.