(dp0
S'seq'
p1
(lp2
S'-scalarrepl-ssa'
p3
aS'-loop-reduce'
p4
aS'-tailcallelim'
p5
aS'-partial-inliner'
p6
aS'-lowerinvoke'
p7
aS'-mergefunc'
p8
aS'-domtree'
p9
aS'-instsimplify'
p10
aS'-indvars'
p11
aS'-loop-deletion'
p12
aS'-no-aa'
p13
aS'-memdep'
p14
aS'-correlated-propagation'
p15
aS'-loop-rotate'
p16
aS'-constmerge'
p17
aS'-loop-unroll'
p18
aS'-gvn'
p19
aS'-globaldce'
p20
aS'-ipsccp'
p21
aS'-globalopt'
p22
aS'-scalar-evolution'
p23
aS'-reassociate'
p24
aS'-loop-idiom'
p25
aS'-loops'
p26
aS'-lazy-value-info'
p27
aS'-scalarrepl'
p28
aS'-early-cse'
p29
aS'-prune-eh'
p30
aS'-constprop'
p31
asS'fitness'
p32
I589
s.