(dp0
S'seq'
p1
(lp2
S'-gvn'
p3
aS'-loop-unroll'
p4
aS'-lazy-value-info'
p5
aS'-scalarrepl-ssa'
p6
aS'-tailcallelim'
p7
aS'-loop-idiom'
p8
aS'-loops'
p9
aS'-globaldce'
p10
aS'-partial-inliner'
p11
aS'-scalarrepl'
p12
aS'scalarrepl'
p13
aS'-domtree'
p14
aS'-prune-eh'
p15
aS'-loop-rotate'
p16
asS'fitness'
p17
I908
s.