(dp0
S'seq'
p1
(lp2
S'-scalarrepl'
p3
aS'-scalarrepl-ssa'
p4
aS'-loop-unroll'
p5
aS'-instsimplify'
p6
aS'-constmerge'
p7
aS'-prune-eh'
p8
aS'-gvn'
p9
aS'-no-aa'
p10
aS'-domtree'
p11
aS'-loop-deletion'
p12
aS'-scalar-evolution'
p13
aS'-early-cse'
p14
aS'-indvars'
p15
aS'-globalopt'
p16
aS'-partial-inliner'
p17
aS'-constprop'
p18
asS'fitness'
p19
I1788
s.