(dp0
S'seq'
p1
(lp2
S'-scalarrepl'
p3
aS'-globaldce'
p4
aS'-globalopt'
p5
aS'-loop-rotate'
p6
aS'-scalar-evolution'
p7
aS'scalarrepl'
p8
aS'-ipsccp'
p9
aS'-constmerge'
p10
aS'-domtree'
p11
aS'-loops'
p12
aS'-constprop'
p13
aS'-sink'
p14
aS'-early-cse'
p15
aS'-correlated-propagation'
p16
aS'-prune-eh'
p17
aS'-loop-idiom'
p18
aS'-no-aa'
p19
aS'-instsimplify'
p20
aS'-reassociate'
p21
aS'-partial-inliner'
p22
aS'-loop-reduce'
p23
aS'-indvars'
p24
aS'-lazy-value-info'
p25
aS'-memdep'
p26
aS'-loop-deletion'
p27
aS'-lowerinvoke'
p28
aS'-scalarrepl-ssa'
p29
aS'-tailcallelim'
p30
aS'-loop-unroll'
p31
asS'fitness'
p32
I975
s.