(dp0
S'seq'
p1
(lp2
S'-scalarrepl'
p3
aS'-mergefunc'
p4
aS'-memdep'
p5
aS'-loop-reduce'
p6
aS'-loop-rotate'
p7
aS'-no-aa'
p8
aS'-tailcallelim'
p9
aS'-instsimplify'
p10
aS'-lowerinvoke'
p11
aS'-prune-eh'
p12
aS'-ipsccp'
p13
aS'-loop-deletion'
p14
aS'-partial-inliner'
p15
aS'-loop-idiom'
p16
aS'-reassociate'
p17
aS'-constprop'
p18
asS'fitness'
p19
I390
s.