(dp0
S'seq'
p1
(lp2
S'-scalarrepl'
p3
aS'-correlated-propagation'
p4
aS'-globalopt'
p5
aS'-loop-reduce'
p6
aS'-gvn'
p7
aS'-sink'
p8
aS'-lowerinvoke'
p9
aS'-scalar-evolution'
p10
aS'-globaldce'
p11
aS'-loop-rotate'
p12
aS'-partial-inliner'
p13
aS'-tailcallelim'
p14
aS'-domtree'
p15
aS'-no-aa'
p16
aS'scalarrepl'
p17
aS'-loop-idiom'
p18
aS'-early-cse'
p19
aS'-loop-deletion'
p20
aS'-scalarrepl-ssa'
p21
aS'-ipsccp'
p22
aS'-indvars'
p23
aS'-prune-eh'
p24
aS'-lazy-value-info'
p25
aS'-constprop'
p26
aS'-instsimplify'
p27
aS'-memdep'
p28
aS'-loops'
p29
aS'-loop-unroll'
p30
aS'-reassociate'
p31
aS'-constmerge'
p32
asS'fitness'
p33
I660
s.