(dp0
S'seq'
p1
(lp2
S'-scalarrepl'
p3
aS'-reassociate'
p4
aS'-tailcallelim'
p5
aS'-memdep'
p6
aS'-lazy-value-info'
p7
aS'-loops'
p8
aS'-constprop'
p9
aS'-loop-reduce'
p10
aS'-indvars'
p11
aS'-no-aa'
p12
aS'-lowerinvoke'
p13
aS'-scalarrepl-ssa'
p14
aS'-loop-idiom'
p15
aS'-gvn'
p16
aS'-constmerge'
p17
aS'-loop-rotate'
p18
aS'-domtree'
p19
aS'-ipsccp'
p20
aS'-sink'
p21
aS'-correlated-propagation'
p22
aS'-loop-unroll'
p23
asS'fitness'
p24
I377
s.