(dp0
S'seq'
p1
(lp2
S'-scalarrepl'
p3
aS'-ipsccp'
p4
aS'-constprop'
p5
aS'-sink'
p6
aS'-memdep'
p7
aS'-tailcallelim'
p8
aS'-loop-rotate'
p9
aS'-globalopt'
p10
aS'-partial-inliner'
p11
aS'-reassociate'
p12
aS'-loop-idiom'
p13
aS'-domtree'
p14
aS'-constmerge'
p15
aS'-indvars'
p16
aS'-globaldce'
p17
aS'-correlated-propagation'
p18
aS'-loop-deletion'
p19
asS'fitness'
p20
I3757
s.