(dp0
S'seq'
p1
(lp2
S'-scalarrepl'
p3
aS'-loop-unroll'
p4
aS'-globaldce'
p5
aS'-ipsccp'
p6
aS'-scalar-evolution'
p7
aS'-prune-eh'
p8
aS'-mergefunc'
p9
aS'-loop-reduce'
p10
aS'-loops'
p11
aS'-gvn'
p12
aS'-lazy-value-info'
p13
aS'-scalarrepl-ssa'
p14
aS'-globalopt'
p15
aS'-reassociate'
p16
aS'-loop-rotate'
p17
aS'-constmerge'
p18
aS'-sink'
p19
aS'-loop-idiom'
p20
aS'-instsimplify'
p21
asS'fitness'
p22
I1885
s.