(dp0
S'seq'
p1
(lp2
S'-gvn'
p3
aS'-correlated-propagation'
p4
aS'-loop-reduce'
p5
aS'-constprop'
p6
aS'-instsimplify'
p7
aS'-lowerinvoke'
p8
aS'-domtree'
p9
aS'-loop-rotate'
p10
aS'scalarrepl'
p11
aS'-scalarrepl'
p12
aS'-ipsccp'
p13
aS'-scalarrepl-ssa'
p14
aS'-prune-eh'
p15
aS'-globalopt'
p16
aS'-constmerge'
p17
aS'-loop-unroll'
p18
aS'-lazy-value-info'
p19
aS'-loop-deletion'
p20
aS'-memdep'
p21
aS'-loop-idiom'
p22
asS'fitness'
p23
I491
s.