(dp0
S'seq'
p1
(lp2
S'-scalarrepl-ssa'
p3
aS'-correlated-propagation'
p4
aS'-partial-inliner'
p5
aS'-scalarrepl'
p6
aS'-tailcallelim'
p7
aS'-memdep'
p8
aS'-ipsccp'
p9
aS'-lowerinvoke'
p10
aS'-globaldce'
p11
aS'-constmerge'
p12
aS'-globalopt'
p13
aS'-sink'
p14
asS'fitness'
p15
I629
s.