(dp0
S'seq'
p1
(lp2
S'-scalarrepl-ssa'
p3
aS'-gvn'
p4
aS'-prune-eh'
p5
aS'-indvars'
p6
aS'-constprop'
p7
aS'-constmerge'
p8
aS'-domtree'
p9
aS'-no-aa'
p10
aS'-partial-inliner'
p11
aS'-ipsccp'
p12
aS'-lowerinvoke'
p13
aS'-globalopt'
p14
aS'-tailcallelim'
p15
aS'-loop-deletion'
p16
aS'-globaldce'
p17
aS'-instsimplify'
p18
aS'-loop-rotate'
p19
aS'-loops'
p20
aS'-correlated-propagation'
p21
aS'-scalar-evolution'
p22
asS'fitness'
p23
I3769
s.