(dp0
S'seq'
p1
(lp2
S'-scalarrepl-ssa'
p3
aS'-constprop'
p4
aS'-lazy-value-info'
p5
aS'-constmerge'
p6
aS'-globalopt'
p7
aS'-scalarrepl'
p8
aS'-sccp'
p9
aS'-ipsccp'
p10
aS'-loop-rotate'
p11
aS'-memdep'
p12
aS'-argpromotion'
p13
aS'-instsimplify'
p14
aS'-correlated-propagation'
p15
aS'-prune-eh'
p16
aS'-gvn'
p17
aS'-early-cse'
p18
aS'-indvars'
p19
aS'-no-aa'
p20
aS'-globaldce'
p21
aS'-inline'
p22
aS'-scalar-evolution'
p23
aS'-loops'
p24
aS'-loop-idiom'
p25
asS'fitness'
p26
I848
s.