(dp0
S'seq'
p1
(lp2
S'-loop-idiom'
p3
aS'-constmerge'
p4
aS'-partial-inliner'
p5
aS'-scalarrepl'
p6
aS'-scalar-evolution'
p7
aS'-loop-unroll'
p8
aS'-loop-deletion'
p9
aS'-domtree'
p10
aS'-early-cse'
p11
aS'-prune-eh'
p12
aS'-no-aa'
p13
aS'-sink'
p14
aS'-lowerinvoke'
p15
aS'-loop-reduce'
p16
aS'-tailcallelim'
p17
aS'-loop-rotate'
p18
aS'-globaldce'
p19
aS'-correlated-propagation'
p20
aS'-constprop'
p21
aS'-indvars'
p22
aS'-reassociate'
p23
aS'-loops'
p24
aS'-scalarrepl-ssa'
p25
aS'-lazy-value-info'
p26
aS'-globalopt'
p27
aS'-instsimplify'
p28
aS'-gvn'
p29
aS'-ipsccp'
p30
aS'-memdep'
p31
asS'fitness'
p32
I490
s.