(dp0
S'seq'
p1
(lp2
S'-scalarrepl-ssa'
p3
aS'-correlated-propagation'
p4
aS'-loop-rotate'
p5
aS'-prune-eh'
p6
aS'-loops'
p7
aS'-globalopt'
p8
aS'-instsimplify'
p9
aS'-early-cse'
p10
aS'-indvars'
p11
aS'-loop-idiom'
p12
aS'-reassociate'
p13
aS'-globaldce'
p14
aS'-tailcallelim'
p15
aS'-ipsccp'
p16
aS'-gvn'
p17
aS'-sink'
p18
aS'-lazy-value-info'
p19
aS'-memdep'
p20
aS'-constmerge'
p21
aS'-scalar-evolution'
p22
asS'fitness'
p23
I965
s.