(dp0
S'seq'
p1
(lp2
S'-scalarrepl'
p3
aS'-die'
p4
aS'-reassociate'
p5
aS'-lowerinvoke'
p6
aS'-inline'
p7
aS'-argpromotion'
p8
aS'-constmerge'
p9
aS'-dce'
p10
aS'-sccp'
p11
asS'fitness'
p12
I1405918
s.