(dp0
S'seq'
p1
(lp2
S'-scalarrepl'
p3
aS'-reassociate'
p4
aS'-dce'
p5
aS'-functionattrs'
p6
aS'-inline'
p7
aS'-sccp'
p8
aS'-scalar-evolution'
p9
aS'-die'
p10
aS'-constmerge'
p11
aS'-loop-idiom'
p12
aS'-lowerinvoke'
p13
aS'-argpromotion'
p14
asS'fitness'
p15
I1530
s.