(dp0
S'seq'
p1
(lp2
S'-scalarrepl-ssa'
p3
aS'-partial-inliner'
p4
aS'-constmerge'
p5
aS'-loop-idiom'
p6
aS'scalarrepl'
p7
aS'-no-aa'
p8
aS'-lowerinvoke'
p9
aS'-constprop'
p10
aS'-lazy-value-info'
p11
aS'-gvn'
p12
aS'-loop-deletion'
p13
aS'-scalarrepl'
p14
aS'-globalopt'
p15
aS'-loop-rotate'
p16
aS'-loops'
p17
aS'-ipsccp'
p18
aS'-instsimplify'
p19
aS'-memdep'
p20
aS'-loop-unroll'
p21
aS'-tailcallelim'
p22
aS'-sink'
p23
aS'-prune-eh'
p24
aS'-domtree'
p25
asS'fitness'
p26
I832
s.