(dp0
S'seq'
p1
(lp2
S'-scalarrepl'
p3
aS'-partial-inliner'
p4
aS'-domtree'
p5
aS'-mergefunc'
p6
aS'-sink'
p7
aS'-scalarrepl-ssa'
p8
aS'-loop-idiom'
p9
aS'-loop-deletion'
p10
aS'-correlated-propagation'
p11
aS'-gvn'
p12
aS'-loop-reduce'
p13
aS'-instsimplify'
p14
asS'fitness'
p15
I848
s.