(dp0
S'seq'
p1
(lp2
S'-scalarrepl'
p3
aS'-memdep'
p4
aS'-globalopt'
p5
aS'-reassociate'
p6
aS'-instsimplify'
p7
aS'-loops'
p8
aS'-tailcallelim'
p9
aS'scalarrepl'
p10
aS'-ipsccp'
p11
aS'-indvars'
p12
aS'-prune-eh'
p13
asS'fitness'
p14
I8858
s.