(dp0
S'seq'
p1
(lp2
S'-scalarrepl'
p3
aS'-lowerinvoke'
p4
aS'-loop-unroll'
p5
aS'-early-cse'
p6
aS'-mergefunc'
p7
aS'-loops'
p8
aS'-scalar-evolution'
p9
aS'-loop-rotate'
p10
aS'-instsimplify'
p11
asS'fitness'
p12
I1956
s.