(dp0
S'seq'
p1
(lp2
S'-scalarrepl'
p3
aS'-ipsccp'
p4
aS'-sink'
p5
aS'-loop-reduce'
p6
aS'-gvn'
p7
aS'-correlated-propagation'
p8
aS'-constmerge'
p9
aS'-lazy-value-info'
p10
aS'-globalopt'
p11
aS'-lowerinvoke'
p12
aS'-scalarrepl-ssa'
p13
aS'-loop-idiom'
p14
aS'-partial-inliner'
p15
aS'-loop-unroll'
p16
aS'-instsimplify'
p17
aS'-tailcallelim'
p18
aS'-memdep'
p19
aS'-loop-rotate'
p20
aS'-globaldce'
p21
aS'-indvars'
p22
aS'-early-cse'
p23
aS'-scalar-evolution'
p24
aS'-loop-deletion'
p25
aS'-loops'
p26
aS'-no-aa'
p27
aS'-constprop'
p28
aS'-prune-eh'
p29
asS'fitness'
p30
I857
s.