(dp0
S'seq'
p1
(lp2
S'-indvars'
p3
aS'-loop-idiom'
p4
aS'-loop-rotate'
p5
aS'-loop-deletion'
p6
aS'-domtree'
p7
aS'-instsimplify'
p8
aS'-partial-inliner'
p9
aS'-scalar-evolution'
p10
aS'-constmerge'
p11
aS'-ipsccp'
p12
aS'-memdep'
p13
aS'-lowerinvoke'
p14
aS'-tailcallelim'
p15
aS'-constprop'
p16
aS'-loop-reduce'
p17
asS'fitness'
p18
I509
s.