(dp0
S'seq'
p1
(lp2
S'-indvars'
p3
aS'-globaldce'
p4
aS'-constmerge'
p5
aS'-scalar-evolution'
p6
aS'-gvn'
p7
aS'-instsimplify'
p8
aS'-lazy-value-info'
p9
aS'-loop-unroll'
p10
aS'-loop-reduce'
p11
aS'-correlated-propagation'
p12
aS'-scalarrepl'
p13
aS'-loops'
p14
aS'-loop-deletion'
p15
aS'-constprop'
p16
aS'-lowerinvoke'
p17
aS'-scalarrepl-ssa'
p18
aS'scalarrepl'
p19
aS'-domtree'
p20
aS'-loop-rotate'
p21
aS'-early-cse'
p22
aS'-sink'
p23
asS'fitness'
p24
I1
s.