(dp0
S'seq'
p1
(lp2
S'-scalarrepl-ssa'
p3
aS'-lower-expect'
p4
aS'-instsimplify'
p5
aS'-lazy-value-info'
p6
aS'-loop-unroll'
p7
aS'-loops'
p8
aS'-prune-eh'
p9
aS'-indvars'
p10
aS'-codegenprepare'
p11
aS'-scalar-evolution'
p12
aS'-sccp'
p13
aS'-early-cse'
p14
aS'-loop-deletion'
p15
aS'-loop-rotate'
p16
aS'-loweratomic'
p17
aS'-inline'
p18
aS'-adce'
p19
aS'-targetlibinfo'
p20
aS'-loop-simplify'
p21
aS'-mergereturn'
p22
aS'-sink'
p23
aS'-functionattrs'
p24
aS'-constmerge'
p25
aS'-lowerinvoke'
p26
aS'-scalarrepl'
p27
aS'-no-aa'
p28
asS'fitness'
p29
I530
s.