(dp0
S'seq'
p1
(lp2
S'-correlated-propagation'
p3
aS'-constmerge'
p4
aS'-lazy-value-info'
p5
aS'-lowerinvoke'
p6
aS'-tailcallelim'
p7
aS'-scalarrepl'
p8
aS'-sink'
p9
aS'-early-cse'
p10
aS'-ipsccp'
p11
aS'-scalarrepl-ssa'
p12
aS'-scalar-evolution'
p13
aS'-loop-idiom'
p14
aS'-loop-unroll'
p15
aS'-loops'
p16
aS'-gvn'
p17
aS'-constprop'
p18
aS'-loop-deletion'
p19
aS'-partial-inliner'
p20
aS'-loop-rotate'
p21
aS'-loop-reduce'
p22
aS'-domtree'
p23
aS'-prune-eh'
p24
aS'-reassociate'
p25
aS'-globaldce'
p26
aS'-no-aa'
p27
asS'fitness'
p28
I463
s.