(dp0
S'seq'
p1
(lp2
S'-scalarrepl-ssa'
p3
aS'-constmerge'
p4
aS'-lowerinvoke'
p5
aS'-ipsccp'
p6
aS'-sink'
p7
aS'-gvn'
p8
aS'-loop-rotate'
p9
aS'-loop-unroll'
p10
aS'-loop-deletion'
p11
aS'-instsimplify'
p12
aS'-early-cse'
p13
asS'fitness'
p14
I2166
s.