(dp0
S'seq'
p1
(lp2
S'-scalarrepl-ssa'
p3
aS'-argpromotion'
p4
aS'-loop-idiom'
p5
aS'-dce'
p6
aS'-loop-rotate'
p7
aS'-scalarrepl'
p8
aS'-scalar-evolution'
p9
aS'-codegenprepare'
p10
aS'-globalopt'
p11
asS'fitness'
p12
I2934
s.