(dp0
S'seq'
p1
(lp2
S'-scalarrepl'
p3
aS'-lowerinvoke'
p4
aS'-no-aa'
p5
aS'-correlated-propagation'
p6
aS'-globaldce'
p7
aS'-constmerge'
p8
aS'-instsimplify'
p9
aS'-scalar-evolution'
p10
aS'-lazy-value-info'
p11
aS'-loop-rotate'
p12
aS'-prune-eh'
p13
aS'-memdep'
p14
asS'fitness'
p15
I492
s.