(dp0
S'seq'
p1
(lp2
S'-scalarrepl'
p3
aS'-prune-eh'
p4
aS'-loop-idiom'
p5
aS'-instsimplify'
p6
aS'-indvars'
p7
aS'-constprop'
p8
aS'-early-cse'
p9
aS'-loops'
p10
aS'-reassociate'
p11
aS'-loop-rotate'
p12
asS'fitness'
p13
I1066
s.