(dp0
S'seq'
p1
(lp2
S'-gvn'
p3
aS'-tailcallelim'
p4
aS'-domtree'
p5
aS'-mergefunc'
p6
aS'-loop-deletion'
p7
aS'-loop-unroll'
p8
aS'-instsimplify'
p9
aS'-scalarrepl-ssa'
p10
aS'-no-aa'
p11
asS'fitness'
p12
I449
s.