(dp0
S'seq'
p1
(lp2
S'-constprop'
p3
aS'-no-aa'
p4
aS'-memdep'
p5
aS'-lazy-value-info'
p6
aS'-gvn'
p7
aS'-scalarrepl-ssa'
p8
aS'-loop-idiom'
p9
aS'-indvars'
p10
aS'scalarrepl'
p11
aS'-loop-reduce'
p12
aS'-reassociate'
p13
aS'-globaldce'
p14
aS'-partial-inliner'
p15
aS'-scalar-evolution'
p16
aS'-instsimplify'
p17
aS'-loops'
p18
aS'-loop-unroll'
p19
aS'-tailcallelim'
p20
aS'-constmerge'
p21
aS'-lowerinvoke'
p22
aS'-sink'
p23
aS'-loop-deletion'
p24
aS'-mergefunc'
p25
aS'-early-cse'
p26
aS'-loop-rotate'
p27
aS'-globalopt'
p28
aS'-domtree'
p29
asS'fitness'
p30
I412
s.