(dp0
S'seq'
p1
(lp2
S'-early-cse'
p3
aS'-globalopt'
p4
aS'-constprop'
p5
aS'-no-aa'
p6
aS'-globaldce'
p7
aS'-loops'
p8
aS'-tailcallelim'
p9
aS'-lazy-value-info'
p10
aS'-sink'
p11
aS'-lowerinvoke'
p12
aS'-scalarrepl-ssa'
p13
aS'-loop-reduce'
p14
aS'-partial-inliner'
p15
aS'-ipsccp'
p16
aS'-constmerge'
p17
aS'-scalar-evolution'
p18
aS'-domtree'
p19
aS'-gvn'
p20
aS'-indvars'
p21
aS'-memdep'
p22
aS'-correlated-propagation'
p23
aS'-reassociate'
p24
aS'-loop-idiom'
p25
aS'-loop-rotate'
p26
aS'-prune-eh'
p27
aS'-loop-unroll'
p28
aS'-scalarrepl'
p29
aS'-instsimplify'
p30
asS'fitness'
p31
I463
s.