(dp0
S'seq'
p1
(lp2
S'-loops'
p3
aS'-lowerinvoke'
p4
aS'-scalar-evolution'
p5
aS'-loop-unroll'
p6
aS'-mergefunc'
p7
aS'-scalarrepl'
p8
aS'-instsimplify'
p9
aS'-early-cse'
p10
aS'-loop-rotate'
p11
asS'fitness'
p12
I2181
s.