(dp0
S'seq'
p1
(lp2
S'-scalarrepl'
p3
aS'-scalar-evolution'
p4
aS'-sccp'
p5
aS'-constmerge'
p6
aS'-dce'
p7
aS'-functionattrs'
p8
aS'-inline'
p9
aS'-die'
p10
aS'-loop-idiom'
p11
asS'fitness'
p12
I908
s.