(dp0
S'seq'
p1
(lp2
S'-scalarrepl-ssa'
p3
aS'-globaldce'
p4
aS'-domtree'
p5
aS'-constprop'
p6
aS'-instsimplify'
p7
aS'-no-aa'
p8
aS'-lowerinvoke'
p9
aS'-reassociate'
p10
aS'-loop-reduce'
p11
aS'-indvars'
p12
asS'fitness'
p13
I865
s.