(dp0
S'seq'
p1
(lp2
S'-scalarrepl'
p3
aS'-argpromotion'
p4
aS'-ipconstprop'
p5
aS'-adce'
p6
aS'-constmerge'
p7
aS'-scalar-evolution'
p8
aS'-reassociate'
p9
aS'-constmerge'
p10
aS'-memdep'
p11
aS'-inline'
p12
aS'-globalopt'
p13
aS'-functionattrs'
p14
aS'-loop-rotate'
p15
aS'-sccp'
p16
aS'-lowerinvoke'
p17
asS'fitness'
p18
I554
s.