(dp0
S'seq'
p1
(lp2
S'-scalarrepl'
p3
aS'-loop-unroll'
p4
aS'-adce'
p5
aS'-scalar-evolution'
p6
aS'-early-cse'
p7
aS'-instsimplify'
p8
aS'-lowerinvoke'
p9
aS'-loops'
p10
aS'-mergefunc'
p11
asS'fitness'
p12
I3507
s.