(dp0
S'seq'
p1
(lp2
S'-scalarrepl'
p3
aS'-loop-unroll'
p4
aS'-constmerge'
p5
aS'-early-cse'
p6
aS'-adce'
p7
aS'-instsimplify'
p8
aS'-loop-rotate'
p9
aS'-globaldce'
p10
aS'-deadargelim'
p11
aS'-lowerinvoke'
p12
aS'-tailcallelim'
p13
asS'fitness'
p14
I2636
s.