(dp0
S'seq'
p1
(lp2
S'-scalarrepl'
p3
aS'-constmerge'
p4
aS'-loop-unroll'
p5
aS'-scalar-evolution'
p6
aS'-early-cse'
p7
aS'-instsimplify'
p8
aS'-loop-rotate'
p9
aS'-lowerinvoke'
p10
aS'-loops'
p11
aS'-mergefunc'
p12
aS'-partial-inliner'
p13
aS'-domtree'
p14
aS'-indvars'
p15
aS'-lazy-value-info'
p16
aS'-prune-eh'
p17
aS'-ipsccp'
p18
aS'-reassociate'
p19
aS'-loop-idiom'
p20
aS'-loop-reduce'
p21
aS'-correlated-propagation'
p22
aS'-scalarrepl-ssa'
p23
aS'-memdep'
p24
aS'-early-cse'
p25
aS'-loop-deletion'
p26
aS'-globaldce'
p27
aS'-gvn'
p28
aS'-no-aa'
p29
aS'-globalopt'
p30
aS'-constmerge'
p31
aS'-tailcallelim'
p32
aS'-constprop'
p33
asS'fitness'
p34
I830
s.