(dp0
S'seq'
p1
(lp2
S'-scalarrepl'
p3
aS'-partial-inliner'
p4
aS'-domtree'
p5
aS'-indvars'
p6
aS'-lazy-value-info'
p7
aS'-sink'
p8
aS'-loops'
p9
aS'-reassociate'
p10
aS'-loop-idiom'
p11
aS'-loop-unroll'
p12
aS'-loop-reduce'
p13
aS'-correlated-propagation'
p14
aS'-scalarrepl-ssa'
p15
aS'-loop-rotate'
p16
aS'-memdep'
p17
aS'-loop-deletion'
p18
aS'-globaldce'
p19
aS'-gvn'
p20
aS'-no-aa'
p21
aS'-scalarrepl'
p22
aS'-globalopt'
p23
aS'-constmerge'
p24
aS'-tailcallelim'
p25
aS'-constprop'
p26
asS'fitness'
p27
I1465
s.