(dp0
S'seq'
p1
(lp2
S'-adce'
p3
aS'-scalarrepl-ssa'
p4
aS'-loop-deletion'
p5
aS'-codegenprepare'
p6
aS'-always-inline'
p7
aS'-inline'
p8
aS'-tailcallelim'
p9
aS'-functionattrs'
p10
aS'-sccp'
p11
aS'-adce'
p12
aS'-constmerge'
p13
aS'-loop-simplify'
p14
aS'-lazy-value-info'
p15
aS'-loop-deletion'
p16
aS'-no-aa'
p17
aS'-scalarrepl'
p18
aS'-loop-unroll'
p19
aS'-scalar-evolution'
p20
aS'-early-cse'
p21
aS'-instsimplify'
p22
asS'fitness'
p23
I1004
s.