(dp0
S'seq'
p1
(lp2
S'-scalarrepl'
p3
aS'-loop-unroll'
p4
aS'-scalar-evolution'
p5
aS'-early-cse'
p6
aS'-constmerge'
p7
aS'-instsimplify'
p8
aS'-loop-rotate'
p9
aS'-deadargelim'
p10
aS'-adce'
p11
aS'-basicaa'
p12
aS'-lowerinvoke'
p13
aS'-loops'
p14
aS'-loop-unroll'
p15
aS'-loops'
p16
aS'-mergefunc'
p17
asS'fitness'
p18
I1287
s.