(dp0
S'seq'
p1
(lp2
S'-loop-unroll'
p3
aS'-deadargelim'
p4
aS'-scalar-evolution'
p5
aS'-instsimplify'
p6
aS'-loop-rotate'
p7
aS'-lowerinvoke'
p8
aS'scalarrepl'
p9
aS'-partial-inliner'
p10
aS'-domtree'
p11
aS'-indvars'
p12
aS'-lazy-value-info'
p13
aS'-prune-eh'
p14
aS'-inline'
p15
aS'-sink'
p16
aS'-loops'
p17
aS'-ipsccp'
p18
aS'-reassociate'
p19
aS'-loop-idiom'
p20
aS'-loop-reduce'
p21
aS'-correlated-propagation'
p22
aS'-scalarrepl-ssa'
p23
aS'-memdep'
p24
aS'-loop-deletion'
p25
aS'-globaldce'
p26
aS'-gvn'
p27
aS'-no-aa'
p28
aS'-globalopt'
p29
aS'-constmerge'
p30
aS'-tailcallelim'
p31
aS'-ipconstprop'
p32
aS'-simplifycfg'
p33
aS'-adce'
p34
asS'fitness'
p35
I589
s.