(dp0
S'seq'
p1
(lp2
S'-scalarrepl'
p3
aS'-scalar-evolution'
p4
aS'-early-cse'
p5
aS'-instsimplify'
p6
aS'-loop-rotate'
p7
aS'-lowerinvoke'
p8
aS'scalarrepl'
p9
aS'-domtree'
p10
aS'-indvars'
p11
aS'-lazy-value-info'
p12
aS'-constprop'
p13
aS'-prune-eh'
p14
aS'-sink'
p15
aS'-tbaa'
p16
aS'-loops'
p17
aS'-ipsccp'
p18
aS'-loop-idiom'
p19
aS'-dce'
p20
aS'-correlated-propagation'
p21
aS'-scalarrepl-ssa'
p22
aS'-memdep'
p23
aS'-loop-deletion'
p24
aS'-globaldce'
p25
aS'-gvn'
p26
aS'-no-aa'
p27
aS'-globalopt'
p28
aS'-adce'
p29
aS'-tailcallelim'
p30
aS'-constprop'
p31
asS'fitness'
p32
I1080
s.