(dp0
S'seq'
p1
(lp2
S'-scalarrepl'
p3
aS'-adce'
p4
aS'-sink'
p5
aS'-lazy-value-info'
p6
aS'-loop-deletion'
p7
aS'-scalar-evolution'
p8
aS'-early-cse'
p9
aS'-constmerge'
p10
aS'-instsimplify'
p11
aS'-scalar-evolution'
p12
aS'-loop-rotate'
p13
aS'-lowerinvoke'
p14
aS'-loops'
p15
aS'-loop-rotate'
p16
aS'-mergefunc'
p17
asS'fitness'
p18
I3549
s.