(dp0
S'seq'
p1
(lp2
S'-scalarrepl'
p3
aS'-loop-unroll'
p4
aS'-early-cse'
p5
aS'-instsimplify'
p6
aS'-partial-inliner'
p7
aS'-domtree'
p8
aS'-indvars'
p9
aS'-adce'
p10
aS'-lazy-value-info'
p11
aS'-prune-eh'
p12
aS'-sink'
p13
aS'-loops'
p14
aS'-ipsccp'
p15
aS'-constmerge'
p16
aS'-loop-idiom'
p17
aS'-loop-reduce'
p18
aS'-correlated-propagation'
p19
aS'-memdep'
p20
aS'-loop-deletion'
p21
aS'-globaldce'
p22
aS'-gvn'
p23
aS'-no-aa'
p24
aS'-globalopt'
p25
aS'-constmerge'
p26
aS'-tailcallelim'
p27
aS'-constprop'
p28
aS'-argpromotion'
p29
aS'-dce'
p30
aS'-die'
p31
aS'-inline'
p32
aS'-functionattrs'
p33
aS'-sccp'
p34
asS'fitness'
p35
I790
s.