(dp0
S'seq'
p1
(lp2
S'-scalarrepl'
p3
aS'-indvars'
p4
aS'-lazy-value-info'
p5
aS'-prune-eh'
p6
aS'-sink'
p7
aS'-loops'
p8
aS'-reassociate'
p9
aS'-loop-idiom'
p10
aS'-loop-unroll'
p11
aS'-loop-reduce'
p12
aS'-correlated-propagation'
p13
aS'-scalarrepl-ssa'
p14
aS'-loop-rotate'
p15
aS'-memdep'
p16
aS'-loop-deletion'
p17
aS'-globaldce'
p18
aS'-gvn'
p19
aS'-no-aa'
p20
aS'-globalopt'
p21
aS'-constmerge'
p22
aS'-tailcallelim'
p23
aS'-constprop'
p24
aS'-adce'
p25
aS'-constmerge'
p26
asS'fitness'
p27
I1009
s.