(dp0
S'seq'
p1
(lp2
S'-scalarrepl'
p3
aS'-loop-idiom'
p4
aS'-argpromotion'
p5
aS'-constmerge'
p6
aS'-constprop'
p7
aS'-ipconstprop'
p8
aS'-scalar-evolution'
p9
aS'-reassociate'
p10
aS'-die'
p11
aS'-inline'
p12
aS'-functionattrs'
p13
aS'-sccp'
p14
aS'-lowerinvoke'
p15
aS'-adce'
p16
asS'fitness'
p17
I718
s.