(dp0
S'seq'
p1
(lp2
S'-scalarrepl'
p3
aS'-loop-unroll'
p4
aS'-loops'
p5
aS'-adce'
p6
aS'-early-cse'
p7
aS'-instsimplify'
p8
aS'-loop-deletion'
p9
aS'-loop-rotate'
p10
aS'-lowerinvoke'
p11
aS'-loops'
p12
aS'-mergefunc'
p13
aS'scalarrepl'
p14
aS'-partial-inliner'
p15
aS'-domtree'
p16
aS'-indvars'
p17
aS'-lazy-value-info'
p18
aS'-prune-eh'
p19
aS'-sink'
p20
aS'-reassociate'
p21
aS'-deadargelim'
p22
aS'-loop-reduce'
p23
aS'-correlated-propagation'
p24
aS'-globaldce'
p25
aS'-scalarrepl-ssa'
p26
aS'-memdep'
p27
aS'-loop-deletion'
p28
aS'-globaldce'
p29
aS'-gvn'
p30
aS'-no-aa'
p31
aS'-globalopt'
p32
aS'-constmerge'
p33
aS'-tailcallelim'
p34
aS'-constprop'
p35
aS'-domtree'
p36
asS'fitness'
p37
I1799
s.