(dp0
S'seq'
p1
(lp2
S'-scalarrepl'
p3
aS'-loop-unroll'
p4
aS'-scalar-evolution'
p5
aS'-early-cse'
p6
aS'-loop-rotate'
p7
aS'-partial-inliner'
p8
aS'-domtree'
p9
aS'-adce'
p10
aS'-indvars'
p11
aS'-lazy-value-info'
p12
aS'-prune-eh'
p13
aS'-sink'
p14
aS'-constmerge'
p15
aS'-loops'
p16
aS'-ipsccp'
p17
aS'-reassociate'
p18
aS'-loop-idiom'
p19
aS'-loop-reduce'
p20
aS'-correlated-propagation'
p21
aS'-scalarrepl-ssa'
p22
aS'-memdep'
p23
aS'-loop-deletion'
p24
aS'-globaldce'
p25
aS'-gvn'
p26
aS'-no-aa'
p27
aS'-globalopt'
p28
aS'-constmerge'
p29
aS'-tailcallelim'
p30
aS'-constprop'
p31
aS'-argpromotion'
p32
aS'-dce'
p33
aS'-die'
p34
aS'-inline'
p35
aS'-functionattrs'
p36
aS'-sccp'
p37
asS'fitness'
p38
I869
s.