(dp0
S'seq'
p1
(lp2
S'-scalarrepl'
p3
aS'-strip-dead-prototypes'
p4
aS'-scalar-evolution'
p5
aS'-early-cse'
p6
aS'-instsimplify'
p7
aS'-loop-rotate'
p8
aS'-lowerinvoke'
p9
aS'-loops'
p10
aS'-mergefunc'
p11
aS'scalarrepl'
p12
aS'-partial-inliner'
p13
aS'-constprop'
p14
aS'-domtree'
p15
aS'-indvars'
p16
aS'-lazy-value-info'
p17
aS'-prune-eh'
p18
aS'-sink'
p19
aS'-adce'
p20
aS'-inline'
p21
aS'-ipsccp'
p22
aS'-reassociate'
p23
aS'-loop-idiom'
p24
aS'-loop-reduce'
p25
aS'-correlated-propagation'
p26
aS'-scalarrepl-ssa'
p27
aS'-loop-deletion'
p28
aS'-globaldce'
p29
aS'-no-aa'
p30
aS'-globalopt'
p31
aS'-constmerge'
p32
aS'-licm'
p33
aS'-tailcallelim'
p34
aS'-constprop'
p35
asS'fitness'
p36
I535
s.