(dp0
S'seq'
p1
(lp2
S'-scalarrepl'
p3
aS'-loop-unroll'
p4
aS'-scalar-evolution'
p5
aS'-constmerge'
p6
aS'-globaldce'
p7
aS'-loop-rotate'
p8
aS'-lowerinvoke'
p9
aS'-loops'
p10
aS'-loop-reduce'
p11
aS'-basicaa'
p12
aS'-inline'
p13
aS'-mergefunc'
p14
aS'-partial-inliner'
p15
aS'-domtree'
p16
aS'-indvars'
p17
aS'-lazy-value-info'
p18
aS'-adce'
p19
aS'-prune-eh'
p20
aS'-sink'
p21
aS'-ipsccp'
p22
aS'-reassociate'
p23
aS'-loop-idiom'
p24
aS'-loop-reduce'
p25
aS'-correlated-propagation'
p26
aS'-scalarrepl-ssa'
p27
aS'-domtree'
p28
aS'-memdep'
p29
aS'-loop-deletion'
p30
aS'-globaldce'
p31
aS'-gvn'
p32
aS'-no-aa'
p33
aS'-globalopt'
p34
aS'-constmerge'
p35
aS'-tailcallelim'
p36
aS'-constprop'
p37
asS'fitness'
p38
I605
s.