(dp0
S'seq'
p1
(lp2
S'-scalarrepl'
p3
aS'-globaldce'
p4
aS'-scalar-evolution'
p5
aS'-early-cse'
p6
aS'-loop-rotate'
p7
aS'-instsimplify'
p8
aS'-loop-rotate'
p9
aS'-lowerinvoke'
p10
asS'fitness'
p11
I595
s.