(dp0
S'seq'
p1
(lp2
S'-loop-unroll'
p3
aS'-scalar-evolution'
p4
aS'-early-cse'
p5
aS'-instsimplify'
p6
aS'-loop-rotate'
p7
aS'-lowerinvoke'
p8
aS'-adce'
p9
aS'-loops'
p10
aS'-mergefunc'
p11
aS'-loop-idiom'
p12
aS'-argpromotion'
p13
aS'-dce'
p14
aS'-constmerge'
p15
aS'-reassociate'
p16
aS'-die'
p17
aS'-inline'
p18
aS'-functionattrs'
p19
aS'-sccp'
p20
asS'fitness'
p21
I0
s.