(dp0
S'seq'
p1
(lp2
S'-scalarrepl'
p3
aS'-scalar-evolution'
p4
aS'-early-cse'
p5
aS'-instsimplify'
p6
aS'-loop-rotate'
p7
aS'-lowerinvoke'
p8
aS'-partial-inliner'
p9
aS'-indvars'
p10
aS'-lazy-value-info'
p11
aS'-sink'
p12
aS'-loops'
p13
aS'-ipsccp'
p14
aS'-reassociate'
p15
aS'-loop-idiom'
p16
aS'-loop-reduce'
p17
aS'-lowerswitch'
p18
aS'-correlated-propagation'
p19
aS'-scalarrepl-ssa'
p20
aS'-memdep'
p21
aS'-loop-deletion'
p22
aS'-basicaa'
p23
aS'-globaldce'
p24
aS'-gvn'
p25
aS'-no-aa'
p26
aS'-constmerge'
p27
aS'-globalopt'
p28
aS'-constmerge'
p29
aS'-tailcallelim'
p30
aS'-constprop'
p31
asS'fitness'
p32
I3737
s.