(dp0
S'seq'
p1
(lp2
S'-scalarrepl'
p3
aS'-globaldce'
p4
aS'-early-cse'
p5
aS'-instsimplify'
p6
aS'-lowerinvoke'
p7
aS'-domtree'
p8
aS'-indvars'
p9
aS'-lazy-value-info'
p10
aS'-prune-eh'
p11
aS'-sink'
p12
aS'-loops'
p13
aS'-ipsccp'
p14
aS'-reassociate'
p15
aS'-loop-idiom'
p16
aS'-loop-reduce'
p17
aS'-correlated-propagation'
p18
aS'-scalarrepl-ssa'
p19
aS'-adce'
p20
aS'-memdep'
p21
aS'-loop-deletion'
p22
aS'-globaldce'
p23
aS'-gvn'
p24
aS'-no-aa'
p25
aS'-globalopt'
p26
aS'-constmerge'
p27
aS'-tailcallelim'
p28
aS'-constprop'
p29
aS'-argpromotion'
p30
aS'-dce'
p31
aS'-die'
p32
aS'-inline'
p33
aS'-inline'
p34
aS'-strip-dead-prototypes'
p35
aS'-functionattrs'
p36
asS'fitness'
p37
I841
s.