(dp0
S'seq'
p1
(lp2
S'-scalarrepl-ssa'
p3
aS'-codegenprepare'
p4
aS'-loop-rotate'
p5
aS'-targetlibinfo'
p6
aS'-functionattrs'
p7
aS'-sccp'
p8
aS'-adce'
p9
aS'-deadargelim'
p10
aS'-strip-dead-prototypes'
p11
aS'-constmerge'
p12
aS'-loop-simplify'
p13
aS'-lazy-value-info'
p14
aS'-no-aa'
p15
aS'-loops'
p16
aS'-mergefunc'
p17
aS'-simplifycfg'
p18
aS'-globaldce'
p19
aS'-basiccg'
p20
aS'-adce'
p21
aS'-indvars'
p22
aS'-prune-eh'
p23
aS'-loweratomic'
p24
aS'-inline'
p25
aS'-constmerge'
p26
aS'-ipconstprop'
p27
aS'-inline'
p28
aS'-domtree'
p29
aS'-lower-expect'
p30
aS'-mergereturn'
p31
asS'fitness'
p32
I1265
s.