(dp0
S'seq'
p1
(lp2
S'-scalarrepl'
p3
aS'-loop-idiom'
p4
aS'-argpromotion'
p5
aS'-dce'
p6
aS'-constmerge'
p7
aS'-scalar-evolution'
p8
aS'-reassociate'
p9
aS'-die'
p10
aS'-inline'
p11
aS'-functionattrs'
p12
aS'-sccp'
p13
aS'-deadargelim'
p14
aS'-lowerinvoke'
p15
aS'-always-inline'
p16
asS'fitness'
p17
I700
s.