(dp0
S'seq'
p1
(lp2
S'-scalarrepl'
p3
aS'-adce'
p4
aS'-loop-unroll'
p5
aS'-scalar-evolution'
p6
aS'-early-cse'
p7
aS'-instsimplify'
p8
aS'-loop-rotate'
p9
aS'-constprop'
p10
aS'-lowerinvoke'
p11
aS'scalarrepl'
p12
aS'-partial-inliner'
p13
aS'-domtree'
p14
aS'-indvars'
p15
aS'-lazy-value-info'
p16
aS'-sink'
p17
aS'-loops'
p18
aS'-tailcallelim'
p19
aS'-ipsccp'
p20
aS'-reassociate'
p21
aS'-loop-idiom'
p22
aS'-loop-reduce'
p23
aS'-correlated-propagation'
p24
aS'-loop-idiom'
p25
aS'-scalarrepl-ssa'
p26
aS'-memdep'
p27
aS'-loop-deletion'
p28
aS'-loop-unroll'
p29
aS'-globaldce'
p30
aS'-gvn'
p31
aS'-globalopt'
p32
aS'-lowerswitch'
p33
aS'-constmerge'
p34
aS'-tailcallelim'
p35
aS'-constprop'
p36
asS'fitness'
p37
I1808
s.