(dp0
S'seq'
p1
(lp2
sS'fitness'
p3
<<<<<<< ours
aS'-scalar-evolution'
p4
aS'-memdep'
p5
aS'-early-cse'
p6
aS'-instsimplify'
p7
aS'-loop-rotate'
p8
aS'-lowerinvoke'
p9
asS'fitness'
p10
I738
=======
I1
>>>>>>> theirs
s.