(dp0
S'seq'
p1
(lp2
S'-scalarrepl-ssa'
p3
aS'-loop-deletion'
p4
aS'-codegenprepare'
p5
aS'-targetlibinfo'
p6
aS'-sink'
p7
aS'-sccp'
p8
aS'-globalopt'
p9
aS'-adce'
p10
aS'-constmerge'
p11
aS'-loop-simplify'
p12
aS'-lazy-value-info'
p13
aS'-constmerge'
p14
aS'-no-aa'
p15
aS'-scalarrepl'
p16
aS'-loops'
p17
aS'-mergefunc'
p18
aS'-simplifycfg'
p19
aS'-globaldce'
p20
aS'-basiccg'
p21
aS'-indvars'
p22
aS'-prune-eh'
p23
aS'-loweratomic'
p24
aS'-inline'
p25
aS'-ipconstprop'
p26
aS'-strip-dead-prototypes'
p27
aS'-domtree'
p28
aS'-lower-expect'
p29
aS'-ipsccp'
p30
aS'-lowerswitch'
p31
aS'-mergereturn'
p32
aS'-dce'
p33
aS'-partial-inliner'
p34
aS'-loop-reduce'
p35
aS'-lowerinvoke'
p36
aS'-early-cse'
p37
aS'-adce'
p38
aS'-loop-rotate'
p39
aS'-globalopt'
p40
asS'fitness'
p41
I444
s.