(dp0
S'seq'
p1
(lp2
S'-scalarrepl'
p3
aS'-loop-unroll'
p4
aS'-scalar-evolution'
p5
aS'-early-cse'
p6
aS'-partial-inliner'
p7
aS'-instsimplify'
p8
aS'-loop-rotate'
p9
aS'-lowerinvoke'
p10
aS'-instcombine'
p11
aS'-globalopt'
p12
aS'-partial-inliner'
p13
aS'-domtree'
p14
aS'-indvars'
p15
aS'-lazy-value-info'
p16
aS'-prune-eh'
p17
aS'-sink'
p18
aS'-loops'
p19
aS'-ipsccp'
p20
aS'-reassociate'
p21
aS'-loop-idiom'
p22
aS'-loop-reduce'
p23
aS'-correlated-propagation'
p24
aS'-scalarrepl-ssa'
p25
aS'-memdep'
p26
aS'-loop-deletion'
p27
aS'-globaldce'
p28
aS'-gvn'
p29
aS'-constmerge'
p30
aS'-globalopt'
p31
aS'-constmerge'
p32
aS'-tailcallelim'
p33
aS'-constprop'
p34
asS'fitness'
p35
I3701
s.