(dp0
S'seq'
p1
(lp2
S'-scalarrepl'
p3
aS'-loop-unroll'
p4
aS'-scalar-evolution'
p5
aS'-early-cse'
p6
aS'-instsimplify'
p7
aS'-basicaa'
p8
aS'-loop-rotate'
p9
aS'-lowerinvoke'
p10
aS'-loops'
p11
aS'-adce'
p12
aS'-mergefunc'
p13
aS'scalarrepl'
p14
aS'-partial-inliner'
p15
aS'-domtree'
p16
aS'-indvars'
p17
aS'-lazy-value-info'
p18
aS'-prune-eh'
p19
aS'-sink'
p20
aS'-ipsccp'
p21
aS'-reassociate'
p22
aS'-loop-idiom'
p23
aS'-loop-reduce'
p24
aS'-correlated-propagation'
p25
aS'-scalarrepl-ssa'
p26
aS'-memdep'
p27
aS'-loop-deletion'
p28
aS'-globaldce'
p29
aS'-gvn'
p30
aS'-no-aa'
p31
aS'-globalopt'
p32
aS'-constmerge'
p33
aS'-tailcallelim'
p34
aS'-constprop'
p35
asS'fitness'
p36
I808
s.