(dp0
S'seq'
p1
(lp2
S'-scalarrepl'
p3
aS'-loop-unroll'
p4
aS'-early-cse'
p5
aS'-instsimplify'
p6
aS'-lowerinvoke'
p7
aS'-adce'
p8
aS'-loops'
p9
aS'-mergefunc'
p10
aS'-loop-idiom'
p11
aS'-deadargelim'
p12
aS'-argpromotion'
p13
aS'-dce'
p14
aS'-constmerge'
p15
aS'-tbaa'
p16
aS'-reassociate'
p17
aS'-die'
p18
aS'-domtree'
p19
aS'-inline'
p20
aS'-functionattrs'
p21
aS'-loop-deletion'
p22
aS'-sccp'
p23
asS'fitness'
p24
I2545
s.