(dp0
S'seq'
p1
(lp2
S'-scalarrepl-ssa'
p3
aS'-loop-deletion'
p4
aS'-codegenprepare'
p5
aS'-loop-rotate'
p6
aS'-targetlibinfo'
p7
aS'-sink'
p8
aS'-functionattrs'
p9
aS'-sccp'
p10
aS'-adce'
p11
aS'-constmerge'
p12
aS'-loop-simplify'
p13
aS'-deadargelim'
p14
aS'-lazy-value-info'
p15
aS'-no-aa'
p16
aS'-scalarrepl'
p17
aS'-loop-unroll'
p18
aS'-scalar-evolution'
p19
aS'-early-cse'
p20
aS'-instsimplify'
p21
aS'-lowerinvoke'
p22
aS'scalarrepl'
p23
aS'-partial-inliner'
p24
aS'-domtree'
p25
aS'-indvars'
p26
aS'-prune-eh'
p27
aS'-loops'
p28
aS'-ipsccp'
p29
aS'-reassociate'
p30
aS'-globaldce'
p31
aS'-loop-idiom'
p32
aS'-loop-reduce'
p33
aS'-correlated-propagation'
p34
aS'-memdep'
p35
aS'-globaldce'
p36
aS'-gvn'
p37
aS'-globalopt'
p38
aS'-tailcallelim'
p39
aS'-lower-expect'
p40
aS'-constprop'
p41
aS'-constprop'
p42
asS'fitness'
p43
I382
s.