(dp0
S'seq'
p1
(lp2
S'-scalarrepl'
p3
aS'-loop-unroll'
p4
aS'-scalar-evolution'
p5
aS'-early-cse'
p6
aS'-instsimplify'
p7
aS'-globaldce'
p8
aS'-loop-rotate'
p9
aS'-lowerinvoke'
p10
aS'-constmerge'
p11
aS'-loops'
p12
aS'-mergefunc'
p13
aS'-partial-inliner'
p14
aS'-domtree'
p15
aS'-indvars'
p16
aS'-lazy-value-info'
p17
aS'-sink'
p18
aS'-ipsccp'
p19
aS'-reassociate'
p20
aS'-loop-idiom'
p21
aS'-loop-reduce'
p22
aS'-correlated-propagation'
p23
aS'-scalarrepl-ssa'
p24
aS'-memdep'
p25
aS'-loop-deletion'
p26
aS'-globaldce'
p27
aS'-gvn'
p28
aS'-no-aa'
p29
aS'-globalopt'
p30
aS'-constmerge'
p31
aS'-tailcallelim'
p32
aS'-adce'
p33
aS'-domtree'
p34
aS'-constprop'
p35
asS'fitness'
p36
I1976
s.