(dp0
S'seq'
p1
(lp2
S'-scalarrepl'
p3
aS'-loop-unroll'
p4
aS'-scalar-evolution'
p5
aS'-early-cse'
p6
aS'-instsimplify'
p7
aS'-loop-rotate'
p8
aS'-constmerge'
p9
aS'-partial-inliner'
p10
aS'-domtree'
p11
aS'-indvars'
p12
aS'-instcombine'
p13
aS'-lazy-value-info'
p14
aS'-prune-eh'
p15
aS'-sink'
p16
aS'-loops'
p17
aS'-ipsccp'
p18
aS'-reassociate'
p19
aS'-loop-idiom'
p20
aS'-loop-reduce'
p21
aS'-correlated-propagation'
p22
aS'-sccp'
p23
aS'-scalarrepl-ssa'
p24
aS'-memdep'
p25
aS'-loop-deletion'
p26
aS'-globaldce'
p27
aS'-gvn'
p28
aS'-no-aa'
p29
aS'-globalopt'
p30
aS'-constmerge'
p31
aS'-lowerswitch'
p32
aS'-tailcallelim'
p33
aS'-constprop'
p34
asS'fitness'
p35
I1815
s.