(dp0
S'seq'
p1
(lp2
S'-scalarrepl'
p3
aS'-loop-unroll'
p4
aS'-early-cse'
p5
aS'-instsimplify'
p6
aS'-loop-rotate'
p7
aS'-lowerinvoke'
p8
aS'-partial-inliner'
p9
aS'-indvars'
p10
aS'-lazy-value-info'
p11
aS'-prune-eh'
p12
aS'-loops'
p13
aS'-ipsccp'
p14
aS'-reassociate'
p15
aS'-constmerge'
p16
aS'-loop-idiom'
p17
aS'-loop-reduce'
p18
aS'-correlated-propagation'
p19
aS'-adce'
p20
aS'-scalarrepl-ssa'
p21
aS'-memdep'
p22
aS'-globalopt'
p23
aS'-loop-deletion'
p24
aS'-globaldce'
p25
aS'-gvn'
p26
aS'-no-aa'
p27
aS'-globalopt'
p28
aS'-constmerge'
p29
aS'-tailcallelim'
p30
aS'-constprop'
p31
asS'fitness'
p32
I1098
s.