(dp0
S'seq'
p1
(lp2
S'-scalarrepl'
p3
aS'-loop-unroll'
p4
aS'-scalar-evolution'
p5
aS'-inline'
p6
aS'-early-cse'
p7
aS'-instsimplify'
p8
aS'-constmerge'
p9
aS'-loop-rotate'
p10
aS'-lowerswitch'
p11
aS'-lowerinvoke'
p12
aS'-loops'
p13
aS'-licm'
p14
aS'-adce'
p15
aS'-mergefunc'
p16
asS'fitness'
p17
I2825
s.