(dp0
S'seq'
p1
(lp2
S'-scalarrepl-ssa'
p3
aS'-loop-deletion'
p4
aS'-codegenprepare'
p5
aS'-targetlibinfo'
p6
aS'-sink'
p7
aS'-constmerge'
p8
aS'-functionattrs'
p9
aS'-ipconstprop'
p10
aS'-sccp'
p11
aS'-adce'
p12
aS'-constmerge'
p13
aS'-adce'
p14
aS'-loop-simplify'
p15
aS'-lazy-value-info'
p16
aS'-scalarrepl'
p17
aS'-loop-unroll'
p18
aS'-instsimplify'
p19
asS'fitness'
p20
I812
s.