(dp0
S'seq'
p1
(lp2
S'-scalarrepl'
p3
aS'-loop-unroll'
p4
aS'-early-cse'
p5
aS'-lowerinvoke'
p6
aS'scalarrepl'
p7
aS'-partial-inliner'
p8
aS'-prune-eh'
p9
aS'-sink'
p10
aS'-loops'
p11
aS'-ipsccp'
p12
aS'-loop-deletion'
p13
aS'-instsimplify'
p14
aS'-reassociate'
p15
aS'-loop-idiom'
p16
aS'-loop-reduce'
p17
aS'-correlated-propagation'
p18
aS'-scalarrepl-ssa'
p19
aS'-memdep'
p20
aS'-loop-deletion'
p21
aS'-partial-inliner'
p22
aS'-globaldce'
p23
aS'-gvn'
p24
aS'-no-aa'
p25
aS'-globalopt'
p26
aS'-adce'
p27
aS'-constmerge'
p28
aS'-tailcallelim'
p29
aS'-constprop'
p30
asS'fitness'
p31
I3777
s.