(dp0
S'seq'
p1
(lp2
S'-scalarrepl'
p3
aS'-loop-unroll'
p4
aS'-constmerge'
p5
aS'-scalar-evolution'
p6
aS'-early-cse'
p7
aS'-adce'
p8
aS'-instsimplify'
p9
aS'-loop-rotate'
p10
aS'-lowerinvoke'
p11
aS'-tailcallelim'
p12
asS'fitness'
p13
I2904
s.