(dp0
S'seq'
p1
(lp2
S'-partial-inliner'
p3
aS'-indvars'
p4
aS'-lazy-value-info'
p5
aS'-prune-eh'
p6
aS'-deadargelim'
p7
aS'-loops'
p8
aS'-ipsccp'
p9
aS'-reassociate'
p10
aS'-loop-idiom'
p11
aS'-loop-unroll'
p12
aS'-constmerge'
p13
aS'-loop-reduce'
p14
aS'-correlated-propagation'
p15
aS'-scalarrepl-ssa'
p16
aS'-loop-rotate'
p17
aS'-memdep'
p18
aS'-loop-deletion'
p19
aS'-globaldce'
p20
aS'-lowerswitch'
p21
aS'-gvn'
p22
aS'-no-aa'
p23
aS'-partial-inliner'
p24
aS'-scalarrepl'
p25
aS'-globalopt'
p26
aS'-constmerge'
p27
aS'-tailcallelim'
p28
aS'-constprop'
p29
asS'fitness'
p30
I989
s.