(dp0
S'seq'
p1
(lp2
S'-scalarrepl'
p3
aS'-tailcallelim'
p4
aS'-scalar-evolution'
p5
aS'-lowerswitch'
p6
aS'-lazy-value-info'
p7
aS'-early-cse'
p8
aS'-instsimplify'
p9
aS'-loop-rotate'
p10
aS'-lowerinvoke'
p11
aS'-adce'
p12
aS'-mergefunc'
p13
asS'fitness'
p14
I401
s.