(dp0
S'seq'
p1
(lp2
S'-scalarrepl'
p3
aS'-loop-unroll'
p4
aS'-scalar-evolution'
p5
aS'-early-cse'
p6
aS'-instsimplify'
p7
aS'-loop-rotate'
p8
aS'-globaldce'
p9
aS'scalarrepl'
p10
aS'-partial-inliner'
p11
aS'-domtree'
p12
aS'-indvars'
p13
aS'-lazy-value-info'
p14
aS'-prune-eh'
p15
aS'-sink'
p16
aS'-adce'
p17
aS'-loops'
p18
aS'-ipsccp'
p19
aS'-reassociate'
p20
aS'-loop-idiom'
p21
aS'-loop-reduce'
p22
aS'-deadargelim'
p23
aS'-correlated-propagation'
p24
aS'-scalarrepl-ssa'
p25
aS'-memdep'
p26
aS'-loop-deletion'
p27
aS'-globaldce'
p28
aS'-gvn'
p29
aS'-no-aa'
p30
aS'-globalopt'
p31
aS'-constmerge'
p32
aS'-tailcallelim'
p33
aS'-constprop'
p34
asS'fitness'
p35
I586
s.