(dp0
S'seq'
p1
(lp2
S'-scalarrepl'
p3
aS'-loop-unroll'
p4
aS'-scalar-evolution'
p5
aS'-early-cse'
p6
aS'-loop-rotate'
p7
aS'-lowerinvoke'
p8
aS'-loops'
p9
aS'-mergefunc'
p10
aS'scalarrepl'
p11
aS'-partial-inliner'
p12
aS'-domtree'
p13
aS'-indvars'
p14
aS'-lazy-value-info'
p15
aS'-prune-eh'
p16
aS'-sink'
p17
aS'-adce'
p18
aS'-ipsccp'
p19
aS'-reassociate'
p20
aS'-loop-idiom'
p21
aS'-loop-reduce'
p22
aS'-correlated-propagation'
p23
aS'-scalarrepl-ssa'
p24
aS'-basicaa'
p25
aS'-memdep'
p26
aS'-loop-deletion'
p27
aS'-globaldce'
p28
aS'-gvn'
p29
aS'-no-aa'
p30
aS'-globalopt'
p31
aS'-lower-expect'
p32
aS'-constmerge'
p33
aS'-tailcallelim'
p34
aS'-constprop'
p35
asS'fitness'
p36
I374
s.