(dp0
S'seq'
p1
(lp2
S'-scalarrepl'
p3
aS'-early-cse'
p4
aS'-loop-rotate'
p5
aS'-mergefunc'
p6
aS'-adce'
p7
aS'-instsimplify'
p8
aS'-loop-rotate'
p9
aS'-tailcallelim'
p10
aS'-lowerinvoke'
p11
aS'-loops'
p12
aS'-globaldce'
p13
aS'-mergefunc'
p14
asS'fitness'
p15
I485
s.