(dp0
S'seq'
p1
(lp2
S'-scalarrepl-ssa'
p3
aS'-loop-rotate'
p4
aS'-targetlibinfo'
p5
aS'-sink'
p6
aS'-functionattrs'
p7
aS'-sccp'
p8
aS'-adce'
p9
aS'-constmerge'
p10
aS'-loop-simplify'
p11
aS'-lazy-value-info'
p12
aS'-no-aa'
p13
aS'-scalarrepl'
p14
aS'-loop-unroll'
p15
aS'-scalar-evolution'
p16
aS'-early-cse'
p17
aS'-partial-inliner'
p18
aS'-deadargelim'
p19
aS'-instsimplify'
p20
aS'-lowerinvoke'
p21
asS'fitness'
p22
I868
s.