(dp0
S'seq'
p1
(lp2
S'-scalarrepl'
p3
aS'-partial-inliner'
p4
aS'-domtree'
p5
aS'-indvars'
p6
aS'-lazy-value-info'
p7
aS'-sink'
p8
aS'-loops'
p9
aS'-ipsccp'
p10
aS'-reassociate'
p11
aS'-loop-idiom'
p12
aS'-loop-unroll'
p13
aS'-loop-reduce'
p14
aS'-correlated-propagation'
p15
aS'-scalarrepl-ssa'
p16
aS'-loop-rotate'
p17
aS'-memdep'
p18
aS'-loop-deletion'
p19
aS'-globaldce'
p20
aS'-adce'
p21
aS'-gvn'
p22
aS'-no-aa'
p23
aS'-globalopt'
p24
aS'-constmerge'
p25
aS'-tailcallelim'
p26
aS'-loops'
p27
aS'-globaldce'
p28
aS'-constprop'
p29
asS'fitness'
p30
I715
s.