(dp0
S'seq'
p1
(lp2
S'-scalarrepl-ssa'
p3
aS'-loop-idiom'
p4
aS'-globalopt'
p5
aS'-loop-rotate'
p6
aS'-lower-expect'
p7
aS'-codegenprepare'
p8
aS'-loops'
p9
aS'-memcpyopt'
p10
aS'-loop-deletion'
p11
aS'-loop-deletion'
p12
aS'-scalarrepl'
p13
aS'-argpromotion'
p14
aS'-dce'
p15
aS'-constmerge'
p16
aS'-constmerge'
p17
aS'-scalar-evolution'
p18
aS'-reassociate'
p19
aS'-die'
p20
aS'-inline'
p21
aS'-functionattrs'
p22
aS'-sccp'
p23
aS'-lowerinvoke'
p24
asS'fitness'
p25
I2969
s.