(dp0
S'seq'
p1
(lp2
S'-scalarrepl'
p3
aS'-loop-unroll'
p4
aS'-scalar-evolution'
p5
aS'-early-cse'
p6
aS'-instsimplify'
p7
aS'-adce'
p8
aS'-lowerinvoke'
p9
aS'-loop-deletion'
p10
aS'-loops'
p11
aS'-mergefunc'
p12
asS'fitness'
p13
I7979
s.