(dp0
S'seq'
p1
(lp2
S'-scalarrepl'
p3
aS'-loop-unroll'
p4
aS'-scalar-evolution'
p5
aS'-always-inline'
p6
aS'-lazy-value-info'
p7
aS'-early-cse'
p8
aS'-adce'
p9
aS'-instsimplify'
p10
aS'-loop-rotate'
p11
aS'-lowerinvoke'
p12
aS'-ipsccp'
p13
aS'-constmerge'
p14
aS'-loops'
p15
aS'-mergefunc'
p16
asS'fitness'
p17
I5795
s.