(dp0
S'seq'
p1
(lp2
S'-scalarrepl'
p3
aS'-tailcallelim'
p4
aS'-scalar-evolution'
p5
aS'-instsimplify'
p6
aS'-loop-deletion'
p7
aS'-loop-rotate'
p8
aS'-globaldce'
p9
aS'-lowerinvoke'
p10
aS'-adce'
p11
aS'-always-inline'
p12
aS'-mergefunc'
p13
asS'fitness'
p14
I514
s.