(dp0
S'seq'
p1
(lp2
S'-loop-unroll'
p3
aS'-scalar-evolution'
p4
aS'-early-cse'
p5
aS'-instsimplify'
p6
aS'-loop-rotate'
p7
aS'-lowerinvoke'
p8
aS'-partial-inliner'
p9
aS'-domtree'
p10
aS'-indvars'
p11
aS'-licm'
p12
aS'-prune-eh'
p13
aS'-sink'
p14
aS'-loops'
p15
aS'-ipsccp'
p16
aS'-reassociate'
p17
aS'-loop-idiom'
p18
aS'-loop-reduce'
p19
aS'-globaldce'
p20
aS'-correlated-propagation'
p21
aS'-scalarrepl-ssa'
p22
aS'-memdep'
p23
aS'-loop-deletion'
p24
aS'-globaldce'
p25
aS'-adce'
p26
aS'-gvn'
p27
aS'-no-aa'
p28
aS'-globalopt'
p29
aS'-constmerge'
p30
aS'-tailcallelim'
p31
aS'-constprop'
p32
asS'fitness'
p33
I520
s.