(dp0
S'seq'
p1
(lp2
S'-scalarrepl'
p3
aS'-loop-idiom'
p4
aS'-argpromotion'
p5
aS'-globalopt'
p6
aS'-basicaa'
p7
aS'-dce'
p8
aS'-constmerge'
p9
aS'-adce'
p10
aS'-constmerge'
p11
aS'-scalar-evolution'
p12
aS'-reassociate'
p13
aS'-die'
p14
aS'-inline'
p15
aS'-functionattrs'
p16
aS'-argpromotion'
p17
aS'-loop-simplify'
p18
asS'fitness'
p19
I993
s.