(dp0
S'seq'
p1
(lp2
S'-scalarrepl'
p3
aS'-early-cse'
p4
aS'-instsimplify'
p5
aS'-loop-rotate'
p6
aS'-loop-idiom'
p7
aS'-argpromotion'
p8
aS'-always-inline'
p9
aS'-constmerge'
p10
aS'-dce'
p11
aS'-adce'
p12
aS'-constmerge'
p13
aS'-reassociate'
p14
aS'-die'
p15
aS'-inline'
p16
aS'-functionattrs'
p17
aS'-sccp'
p18
asS'fitness'
p19
I3771
s.