(dp0
S'seq'
p1
(lp2
S'-scalarrepl'
p3
aS'-constmerge'
p4
aS'-scalar-evolution'
p5
aS'-early-cse'
p6
aS'-deadargelim'
p7
aS'-instsimplify'
p8
aS'-loop-rotate'
p9
aS'-lowerinvoke'
p10
aS'-correlated-propagation'
p11
aS'-loops'
p12
aS'-adce'
p13
aS'-mergefunc'
p14
asS'fitness'
p15
I895
s.