(dp0
S'seq'
p1
(lp2
S'-scalarrepl'
p3
aS'-loop-idiom'
p4
aS'-simplifycfg'
p5
aS'-dse'
p6
aS'-constmerge'
p7
aS'-argpromotion'
p8
aS'-dce'
p9
aS'-loop-rotate'
p10
aS'-constmerge'
p11
aS'-scalar-evolution'
p12
aS'-adce'
p13
aS'-reassociate'
p14
aS'-die'
p15
aS'-inline'
p16
aS'-functionattrs'
p17
aS'-sccp'
p18
aS'-lowerinvoke'
p19
asS'fitness'
p20
I1405210
s.