(dp0
S'seq'
p1
(lp2
S'-scalarrepl-ssa'
p3
aS'-loop-idiom'
p4
aS'-gvn'
p5
aS'-ipsccp'
p6
aS'-globalopt'
p7
aS'-loop-rotate'
p8
aS'-lower-expect'
p9
aS'-codegenprepare'
p10
aS'-loops'
p11
aS'-memcpyopt'
p12
aS'-loop-deletion'
p13
aS'-scalarrepl'
p14
aS'-mergereturn'
p15
aS'-loop-simplify'
p16
aS'-loop-instsimplify'
p17
aS'-jump-threading'
p18
aS'-loweratomic'
p19
aS'-die'
p20
aS'-indvars'
p21
aS'-early-cse'
p22
aS'-domtree'
p23
aS'-deadargelim'
p24
aS'-constprop'
p25
aS'-argpromotion'
p26
aS'-dce'
p27
aS'-constmerge'
p28
aS'-scalar-evolution'
p29
aS'-reassociate'
p30
aS'-inline'
p31
aS'-functionattrs'
p32
aS'-adce'
p33
aS'-sccp'
p34
aS'-lowerinvoke'
p35
asS'fitness'
p36
I2955
s.