(dp0
S'seq'
p1
(lp2
S'-scalarrepl'
p3
aS'-scalar-evolution'
p4
aS'-early-cse'
p5
aS'-instsimplify'
p6
aS'-loop-rotate'
p7
aS'-lowerinvoke'
p8
aS'-loops'
p9
aS'-mergefunc'
p10
aS'-partial-inliner'
p11
aS'-domtree'
p12
aS'-indvars'
p13
aS'-lazy-value-info'
p14
aS'-prune-eh'
p15
aS'-sink'
p16
aS'-ipsccp'
p17
aS'-reassociate'
p18
aS'-loop-idiom'
p19
aS'-scalarrepl-ssa'
p20
aS'-memdep'
p21
aS'-globaldce'
p22
aS'-gvn'
p23
aS'-no-aa'
p24
aS'-globalopt'
p25
aS'-constmerge'
p26
aS'-tailcallelim'
p27
aS'-constprop'
p28
asS'fitness'
p29
I831
s.