(dp0
S'seq'
p1
(lp2
S'-scalarrepl'
p3
aS'-instsimplify'
p4
aS'-loop-rotate'
p5
aS'-lowerinvoke'
p6
aS'scalarrepl'
p7
aS'-partial-inliner'
p8
aS'-domtree'
p9
aS'-indvars'
p10
aS'-lazy-value-info'
p11
aS'-sccp'
p12
aS'-constmerge'
p13
aS'-sink'
p14
aS'-adce'
p15
aS'-loops'
p16
aS'-ipsccp'
p17
aS'-reassociate'
p18
aS'-loop-idiom'
p19
aS'-loop-reduce'
p20
aS'-correlated-propagation'
p21
aS'-scalarrepl-ssa'
p22
aS'-memdep'
p23
aS'-loop-deletion'
p24
aS'-globaldce'
p25
aS'-gvn'
p26
aS'-loop-unswitch'
p27
aS'-no-aa'
p28
aS'-globalopt'
p29
aS'-constmerge'
p30
aS'-tailcallelim'
p31
aS'-constprop'
p32
asS'fitness'
p33
I8869
s.