(dp0
S'seq'
p1
(lp2
S'-scalarrepl'
p3
aS'-loop-idiom'
p4
aS'-argpromotion'
p5
aS'-constmerge'
p6
aS'-scalar-evolution'
p7
aS'-reassociate'
p8
aS'-die'
p9
aS'-inline'
p10
aS'-functionattrs'
p11
aS'-sccp'
p12
aS'-adce'
p13
asS'fitness'
p14
I1203
s.