(dp0
S'seq'
p1
(lp2
S'-scalarrepl'
p3
aS'-loop-idiom'
p4
aS'-argpromotion'
p5
aS'-dce'
p6
aS'-constmerge'
p7
aS'-reassociate'
p8
aS'-adce'
p9
aS'-loop-instsimplify'
p10
aS'-loops'
p11
aS'-die'
p12
aS'-inline'
p13
aS'-functionattrs'
p14
aS'-sccp'
p15
aS'-lowerinvoke'
p16
aS'-dse'
p17
asS'fitness'
p18
I972
s.