(dp0
S'seq'
p1
(lp2
S'-scalarrepl'
p3
aS'-loop-idiom'
p4
aS'-argpromotion'
p5
aS'-constmerge'
p6
aS'-dce'
p7
aS'-constmerge'
p8
aS'-adce'
p9
aS'-scalar-evolution'
p10
aS'-reassociate'
p11
aS'-die'
p12
aS'-inline'
p13
aS'-functionattrs'
p14
aS'-sccp'
p15
aS'-lowerinvoke'
p16
asS'fitness'
p17
I1576
s.