(dp0
S'seq'
p1
(lp2
S'-scalarrepl'
p3
aS'-deadargelim'
p4
aS'-adce'
p5
aS'-loop-idiom'
p6
aS'-argpromotion'
p7
aS'-dce'
p8
aS'-constmerge'
p9
aS'-scalar-evolution'
p10
aS'-die'
p11
aS'-inline'
p12
aS'-globalopt'
p13
aS'-sccp'
p14
aS'-loops'
p15
aS'-lowerinvoke'
p16
aS'-constmerge'
p17
asS'fitness'
p18
I994
s.