(dp0
S'seq'
p1
(lp2
S'-scalarrepl'
p3
aS'-scalar-evolution'
p4
aS'-early-cse'
p5
aS'-instsimplify'
p6
aS'-loop-rotate'
p7
aS'-globaldce'
p8
aS'-loops'
p9
aS'-adce'
p10
aS'-mergefunc'
p11
aS'scalarrepl'
p12
aS'-partial-inliner'
p13
aS'-domtree'
p14
aS'-indvars'
p15
aS'-lazy-value-info'
p16
aS'-sink'
p17
aS'-ipsccp'
p18
aS'-reassociate'
p19
aS'-loop-idiom'
p20
aS'-loop-reduce'
p21
aS'-correlated-propagation'
p22
aS'-scalarrepl-ssa'
p23
aS'-memdep'
p24
aS'-loop-deletion'
p25
aS'-globaldce'
p26
aS'-gvn'
p27
aS'-no-aa'
p28
aS'-globalopt'
p29
aS'-constmerge'
p30
aS'-tailcallelim'
p31
aS'-loop-deletion'
p32
aS'-memcpyopt'
p33
aS'-constprop'
p34
asS'fitness'
p35
I841
s.