(dp0
S'seq'
p1
(lp2
S'-scalarrepl'
p3
aS'-dce'
p4
aS'-ipconstprop'
p5
aS'-scalar-evolution'
p6
aS'-reassociate'
p7
aS'-die'
p8
aS'-loop-idiom'
p9
aS'-die'
p10
aS'-functionattrs'
p11
aS'-globalopt'
p12
aS'-sccp'
p13
aS'-adce'
p14
aS'-lowerinvoke'
p15
asS'fitness'
p16
I2050
s.