(dp0
S'seq'
p1
(lp2
S'-instcombine'
p3
aS'-loop-unroll'
p4
aS'-lcssa'
p5
aS'-scalar-evolution'
p6
aS'-early-cse'
p7
aS'-instsimplify'
p8
aS'-tailcallelim'
p9
aS'-constmerge'
p10
aS'-lowerinvoke'
p11
aS'-mergefunc'
p12
aS'-loop-idiom'
p13
aS'-lowerswitch'
p14
aS'-partial-inliner'
p15
aS'-domtree'
p16
aS'-indvars'
p17
aS'-lazy-value-info'
p18
aS'-prune-eh'
p19
aS'-adce'
p20
aS'-sink'
p21
aS'-ipsccp'
p22
aS'-reassociate'
p23
aS'-sccp'
p24
aS'-loop-idiom'
p25
aS'-loop-reduce'
p26
aS'-loop-deletion'
p27
aS'-correlated-propagation'
p28
aS'-loop-simplify'
p29
aS'-scalarrepl-ssa'
p30
aS'-memdep'
p31
aS'-loop-deletion'
p32
aS'-globaldce'
p33
aS'-gvn'
p34
aS'-no-aa'
p35
aS'-globalopt'
p36
aS'-constmerge'
p37
aS'-tailcallelim'
p38
aS'-constprop'
p39
asS'fitness'
p40
I1192
s.