(dp0
S'seq'
p1
(lp2
S'-scalarrepl'
p3
aS'-argpromotion'
p4
aS'-constmerge'
p5
aS'-deadargelim'
p6
aS'-targetlibinfo'
p7
aS'-reassociate'
p8
aS'-die'
p9
aS'-inline'
p10
aS'-functionattrs'
p11
aS'-adce'
p12
aS'-sccp'
p13
aS'-lowerinvoke'
p14
asS'fitness'
p15
I898
s.