(dp0
S'seq'
p1
(lp2
S'-scalarrepl'
p3
aS'-loop-unroll'
p4
aS'-scalar-evolution'
p5
aS'-early-cse'
p6
aS'-loop-rotate'
p7
aS'-lowerinvoke'
p8
aS'-loops'
p9
aS'-mergefunc'
p10
aS'-partial-inliner'
p11
aS'-domtree'
p12
aS'-indvars'
p13
aS'-basiccg'
p14
aS'-adce'
p15
aS'-lazy-value-info'
p16
aS'-prune-eh'
p17
aS'-ipsccp'
p18
aS'-reassociate'
p19
aS'-loop-idiom'
p20
aS'-loop-reduce'
p21
aS'-correlated-propagation'
p22
aS'-scalarrepl-ssa'
p23
aS'-memdep'
p24
aS'-loop-deletion'
p25
aS'-globaldce'
p26
aS'-gvn'
p27
aS'-no-aa'
p28
aS'-globalopt'
p29
aS'-tailcallelim'
p30
aS'-constprop'
p31
asS'fitness'
p32
I457
s.