(dp0
S'seq'
p1
(lp2
S'-instcombine'
p3
aS'-targetlibinfo'
p4
aS'-scalarrepl'
p5
aS'-loop-simplify'
p6
aS'-early-cse'
p7
aS'-instsimplify'
p8
aS'-adce'
p9
aS'-lowerinvoke'
p10
aS'-ipsccp'
p11
aS'-loop-idiom'
p12
aS'-argpromotion'
p13
aS'-dce'
p14
aS'-constmerge'
p15
aS'-loop-instsimplify'
p16
aS'-sccp'
p17
aS'-die'
p18
aS'-inline'
p19
aS'-functionattrs'
p20
aS'-sccp'
p21
aS'-argpromotion'
p22
I541
s.
