(dp0
S'seq'
p1
(lp2
S'-scalarrepl'
p3
aS'-scalar-evolution'
p4
aS'-early-cse'
p5
aS'-constmerge'
p6
aS'-instsimplify'
p7
aS'-constprop'
p8
aS'-loop-rotate'
p9
aS'-lowerinvoke'
p10
aS'scalarrepl'
p11
aS'-partial-inliner'
p12
aS'-domtree'
p13
aS'-indvars'
p14
aS'-lazy-value-info'
p15
aS'-prune-eh'
p16
aS'-sink'
p17
aS'-loops'
p18
aS'-ipsccp'
p19
aS'-reassociate'
p20
aS'-loop-reduce'
p21
aS'-deadargelim'
p22
aS'-scalarrepl-ssa'
p23
aS'-loop-deletion'
p24
aS'-reassociate'
p25
aS'-memdep'
p26
aS'-loop-deletion'
p27
aS'-inline'
p28
aS'-gvn'
p29
aS'-no-aa'
p30
aS'-globalopt'
p31
aS'-constmerge'
p32
aS'-adce'
p33
aS'-tailcallelim'
p34
aS'-indvars'
p35
aS'-constprop'
p36
asS'fitness'
p37
I483
s.