(dp0
S'seq'
p1
(lp2
S'-scalarrepl'
p3
aS'-argpromotion'
p4
aS'-dce'
p5
aS'-constmerge'
p6
aS'-scalar-evolution'
p7
aS'-adce'
p8
aS'-reassociate'
p9
aS'-ipconstprop'
p10
aS'-die'
p11
aS'-inline'
p12
aS'-die'
p13
aS'-functionattrs'
p14
aS'-sccp'
p15
aS'-lowerinvoke'
p16
aS'-loop-rotate'
p17
asS'fitness'
p18
I1736
s.