(dp0
S'seq'
p1
(lp2
S'-scalarrepl'
p3
aS'-loop-unroll'
p4
aS'-loop-rotate'
p5
aS'-lowerinvoke'
p6
aS'scalarrepl'
p7
aS'-partial-inliner'
p8
aS'-domtree'
p9
aS'-deadargelim'
p10
aS'-lazy-value-info'
p11
aS'-adce'
p12
aS'-prune-eh'
p13
aS'-sink'
p14
aS'-loops'
p15
aS'-ipsccp'
p16
aS'-strip-dead-prototypes'
p17
aS'-reassociate'
p18
aS'-lowerswitch'
p19
aS'-loop-idiom'
p20
aS'-loop-reduce'
p21
aS'-scalarrepl-ssa'
p22
aS'-memdep'
p23
aS'-loop-deletion'
p24
aS'-globaldce'
p25
aS'-gvn'
p26
aS'-no-aa'
p27
aS'-globalopt'
p28
aS'-constmerge'
p29
aS'-tailcallelim'
p30
aS'-constprop'
p31
asS'fitness'
p32
I499
s.