(dp0
S'seq'
p1
(lp2
S'-scalarrepl'
p3
aS'-scalar-evolution'
p4
aS'-early-cse'
p5
aS'-instsimplify'
p6
aS'-loop-rotate'
p7
aS'-lowerinvoke'
p8
aS'-mergefunc'
p9
aS'scalarrepl'
p10
aS'-partial-inliner'
p11
aS'-adce'
p12
aS'-domtree'
p13
aS'-indvars'
p14
aS'-lazy-value-info'
p15
aS'-prune-eh'
p16
aS'-sink'
p17
aS'-ipsccp'
p18
aS'-reassociate'
p19
aS'-loop-idiom'
p20
aS'-loop-reduce'
p21
aS'-correlated-propagation'
p22
aS'-constmerge'
p23
aS'-memdep'
p24
aS'-loop-deletion'
p25
aS'-globaldce'
p26
aS'-gvn'
p27
aS'-no-aa'
p28
aS'-globalopt'
p29
aS'-constmerge'
p30
aS'-tailcallelim'
p31
asS'fitness'
p32
I1333
s.