(dp0
S'seq'
p1
(lp2
S'-scalarrepl'
p3
aS'-sccp'
p4
aS'-loops'
p5
aS'-tailcallelim'
p6
aS'-dse'
p7
aS'-domtree'
p8
aS'-inline'
p9
aS'-basicaa'
p10
aS'-correlated-propagation'
p11
asS'fitness'
p12
I1458592
s.