(dp0
S'seq'
p1
(lp2
S'-gvn'
p3
aS'-loops'
p4
aS'-instsimplify'
p5
aS'-loop-instsimplify'
p6
aS'-loop-rotate'
p7
aS'-deadargelim'
p8
aS'-adce'
p9
aS'-loop-unswitch'
p10
aS'-inline'
p11
asS'fitness'
p12
I739
s.