(dp0
S'seq'
p1
(lp2
S'-scalarrepl'
p3
aS'-instcombine'
p4
aS'-loop-idiom'
p5
aS'-lower-expect'
p6
aS'-loop-rotate'
p7
aS'-domtree'
p8
aS'-constprop'
p9
aS'-scalarrepl-ssa'
p10
aS'-sink'
p11
aS'-sccp'
p12
aS'-loop-simplify'
p13
aS'-memcpyopt'
p14
aS'-ipsccp'
p15
asS'fitness'
p16
I825
s.