(dp0
S'seq'
p1
(lp2
S'-scalarrepl'
p3
aS'-gvn'
p4
aS'-jump-threading'
p5
aS'-sink'
p6
aS'-instcombine'
p7
aS'-tbaa'
p8
aS'-strip-dead-prototypes'
p9
aS'-inline'
p10
aS'-correlated-propagation'
p11
aS'-adce'
p12
aS'-instsimplify'
p13
aS'-licm'
p14
aS'-partial-inliner'
p15
aS'-prune-eh'
p16
aS'-always-inline'
p17
aS'-loop-simplify'
p18
asS'fitness'
p19
I968
s.