(dp0
S'seq'
p1
(lp2
S'-scalarrepl'
p3
aS'-gvn'
p4
aS'-deadargelim'
p5
aS'-adce'
p6
aS'-simplifycfg'
p7
aS'-loop-deletion'
p8
aS'-tbaa'
p9
aS'-sink'
p10
aS'-jump-threading'
p11
aS'-instsimplify'
p12
aS'-loop-unroll'
p13
aS'-loop-unswitch'
p14
aS'-functionattrs'
p15
aS'-reassociate'
p16
aS'-argpromotion'
p17
aS'-always-inline'
p18
aS'-lazy-value-info'
p19
asS'fitness'
p20
I2958
s.