(dp0
S'seq'
p1
(lp2
S'-scalarrepl'
p3
aS'-loop-rotate'
p4
aS'-sink'
p5
aS'-scalarrepl-ssa'
p6
aS'-domtree'
p7
aS'-memcpyopt'
p8
aS'-loop-deletion'
p9
aS'-targetlibinfo'
p10
aS'-loops'
p11
aS'-globaldce'
p12
aS'-deadargelim'
p13
aS'-globalopt'
p14
asS'fitness'
p15
I8882
s.