(dp0
S'seq'
p1
(lp2
S'-instcombine'
p3
aS'-lowerswitch'
p4
aS'-lower-expect'
p5
aS'-loop-unswitch'
p6
aS'-prune-eh'
p7
aS'-globaldce'
p8
aS'-dse'
p9
aS'-ipconstprop'
p10
aS'-constmerge'
p11
asS'fitness'
p12
I0
s.