(dp0
S'seq'
p1
(lp2
S'-scalarrepl'
p3
aS'-loop-unroll'
p4
aS'-argpromotion'
p5
aS'-early-cse'
p6
aS'-constmerge'
p7
aS'-deadargelim'
p8
aS'-instsimplify'
p9
aS'-loop-rotate'
p10
aS'-loop-deletion'
p11
aS'-mergefunc'
p12
aS'-lowerinvoke'
p13
aS'-adce'
p14
aS'-loops'
p15
asS'fitness'
p16
I0
s.