(dp0
S'seq'
p1
(lp2
S'-scalarrepl'
p3
aS'-constprop'
p4
aS'-scalar-evolution'
p5
aS'-early-cse'
p6
aS'-instsimplify'
p7
aS'-lowerinvoke'
p8
aS'-loop-rotate'
p9
aS'-lowerinvoke'
p10
aS'-loops'
p11
aS'-mergefunc'
p12
asS'fitness'
p13
I386
s.