(dp0
S'seq'
p1
(lp2
S'-scalarrepl'
p3
aS'-strip-dead-prototypes'
p4
aS'-constprop'
p5
aS'-loop-unroll'
p6
aS'-scalar-evolution'
p7
aS'-instsimplify'
p8
aS'-adce'
p9
aS'-loop-rotate'
p10
aS'-lowerinvoke'
p11
asS'fitness'
p12
I2917
s.