(dp0
S'seq'
p1
(lp2
S'-scalarrepl'
p3
aS'-loop-unroll'
p4
aS'-inline'
p5
aS'-tbaa'
p6
aS'-scalar-evolution'
p7
aS'-loop-deletion'
p8
aS'-early-cse'
p9
aS'-instsimplify'
p10
aS'-loop-rotate'
p11
aS'-lowerinvoke'
p12
aS'-loop-rotate'
p13
aS'-loops'
p14
aS'-mergefunc'
p15
asS'fitness'
p16
I1234
s.