(dp0
S'seq'
p1
(lp2
S'-scalarrepl'
p3
aS'-partial-inliner'
p4
aS'-deadargelim'
p5
aS'-domtree'
p6
aS'-lazy-value-info'
p7
aS'-sink'
p8
aS'-loops'
p9
aS'-reassociate'
p10
aS'-loop-idiom'
p11
aS'-loop-unroll'
p12
aS'-loop-reduce'
p13
aS'-correlated-propagation'
p14
aS'-scalarrepl-ssa'
p15
aS'-loop-rotate'
p16
aS'-memdep'
p17
aS'-adce'
p18
aS'-loop-deletion'
p19
aS'-globaldce'
p20
aS'-gvn'
p21
aS'-globalopt'
p22
aS'-constmerge'
p23
aS'-tailcallelim'
p24
asS'fitness'
p25
I1110
s.