(dp0
S'seq'
p1
(lp2
S'-scalarrepl'
p3
aS'-scalar-evolution'
p4
aS'-scalarrepl'
p5
aS'-loop-deletion'
p6
aS'-ipconstprop'
p7
aS'-ipsccp'
p8
aS'-constmerge'
p9
aS'-early-cse'
p10
aS'-loop-instsimplify'
p11
aS'-instsimplify'
p12
aS'-loop-rotate'
p13
aS'-loop-rotate'
p14
aS'-lowerinvoke'
p15
asS'fitness'
p16
I730
s.