(dp0
S'seq'
p1
(lp2
S'-lazy-value-info'
p3
aS'-prune-eh'
p4
aS'-ipsccp'
p5
aS'-reassociate'
p6
aS'-loop-idiom'
p7
aS'-loop-unroll'
p8
aS'-correlated-propagation'
p9
aS'-scalarrepl-ssa'
p10
aS'-memdep'
p11
aS'-loop-deletion'
p12
aS'-functionattrs'
p13
aS'-globaldce'
p14
aS'-adce'
p15
aS'-gvn'
p16
aS'-constmerge'
p17
aS'-no-aa'
p18
aS'-scalarrepl'
p19
aS'-globalopt'
p20
aS'-constmerge'
p21
aS'-constprop'
p22
asS'fitness'
p23
I1002
s.