(dp0
S'seq'
p1
(lp2
S'-scalarrepl'
p3
aS'-scalar-evolution'
p4
aS'-instsimplify'
p5
aS'-loop-rotate'
p6
aS'-basicaa'
p7
aS'-lowerinvoke'
p8
aS'-adce'
p9
aS'-loops'
p10
aS'-constprop'
p11
aS'-mergefunc'
p12
asS'fitness'
p13
I1179
s.