(dp0
S'seq'
p1
(lp2
S'-scalarrepl'
p3
aS'-lowerinvoke'
p4
aS'scalarrepl'
p5
aS'-domtree'
p6
aS'-lazy-value-info'
p7
aS'-prune-eh'
p8
aS'-sink'
p9
aS'-loops'
p10
aS'-ipsccp'
p11
aS'-reassociate'
p12
aS'-loop-reduce'
p13
aS'-dse'
p14
aS'-scalarrepl-ssa'
p15
aS'-memdep'
p16
aS'-loop-deletion'
p17
aS'-deadargelim'
p18
aS'-globaldce'
p19
aS'-ipconstprop'
p20
aS'-no-aa'
p21
aS'-globalopt'
p22
aS'-constmerge'
p23
aS'-adce'
p24
aS'-tailcallelim'
p25
aS'-constprop'
p26
asS'fitness'
p27
I485
s.