(dp0
S'seq'
p1
(lp2
S'-scalarrepl'
p3
aS'-adce'
p4
aS'-loop-idiom'
p5
aS'-constmerge'
p6
aS'-dce'
p7
aS'-inline'
p8
aS'-reassociate'
p9
aS'-inline'
p10
aS'-functionattrs'
p11
aS'-sccp'
p12
aS'-globaldce'
p13
aS'-lowerinvoke'
p14
asS'fitness'
p15
I0
s.