(dp0
S'seq'
p1
(lp2
S'-scalarrepl-ssa'
p3
aS'-targetlibinfo'
p4
aS'-sink'
p5
aS'-functionattrs'
p6
aS'-sccp'
p7
aS'-adce'
p8
aS'-constmerge'
p9
aS'-no-aa'
p10
aS'-ipsccp'
p11
aS'-scalarrepl'
p12
aS'-loop-unroll'
p13
aS'-adce'
p14
aS'-scalar-evolution'
p15
aS'-globaldce'
p16
aS'-early-cse'
p17
aS'-instsimplify'
p18
aS'-die'
p19
aS'-lowerinvoke'
p20
asS'fitness'
p21
I795
s.