(dp0
S'seq'
p1
(lp2
S'-scalarrepl'
p3
aS'-early-cse'
p4
aS'-adce'
p5
aS'-loop-rotate'
p6
aS'-lowerinvoke'
p7
aS'-inline'
p8
aS'-loops'
p9
aS'-loop-idiom'
p10
aS'-dce'
p11
aS'-constmerge'
p12
aS'-reassociate'
p13
aS'-die'
p14
aS'-inline'
p15
aS'-functionattrs'
p16
aS'-sccp'
p17
aS'-ipconstprop'
p18
aS'-constmerge'
p19
aS'-globaldce'
p20
asS'fitness'
p21
I3012
s.