(dp0
S'seq'
p1
(lp2
S'-scalarrepl'
p3
aS'-memdep'
p4
aS'-instsimplify'
p5
aS'-loop-rotate'
p6
aS'-lowerinvoke'
p7
aS'-loops'
p8
aS'-functionattrs'
p9
aS'-mergefunc'
p10
aS'-partial-inliner'
p11
aS'-adce'
p12
asS'fitness'
p13
I2895
s.