(dp0
S'seq'
p1
(lp2
S'-scalarrepl'
p3
aS'-loop-idiom'
p4
aS'-adce'
p5
aS'-argpromotion'
p6
aS'-deadargelim'
p7
aS'-dce'
p8
aS'-scalar-evolution'
p9
aS'-reassociate'
p10
aS'-die'
p11
aS'-inline'
p12
aS'-loop-deletion'
p13
aS'-functionattrs'
p14
aS'-constmerge'
p15
aS'-sccp'
p16
aS'-ipconstprop'
p17
asS'fitness'
p18
I0
s.