(dp0
S'seq'
p1
(lp2
S'-scalarrepl'
p3
<<<<<<< HEAD
aS'-licm'
p4
aS'-instsimplify'
p5
aS'-loop-rotate'
p6
aS'-lowerinvoke'
p7
aS'-adce'
p8
aS'-loops'
p9
aS'-constmerge'
=======
aS'-loop-unroll'
p4
aS'-instsimplify'
p5
aS'-globaldce'
p6
aS'-loop-rotate'
p7
aS'-lowerinvoke'
p8
aS'-loops'
p9
aS'-mergefunc'
>>>>>>> 89eb17636a6cec1178414ea03d06e8d366702cf9
p10
aS'scalarrepl'
p11
aS'-partial-inliner'
p12
<<<<<<< HEAD
aS'-domtree'
p13
aS'-indvars'
p14
aS'-inline'
p15
aS'-lazy-value-info'
p16
aS'-loop-rotate'
p17
aS'-deadargelim'
p18
aS'-prune-eh'
p19
aS'-sink'
p20
aS'-ipsccp'
p21
aS'-reassociate'
p22
aS'-loop-reduce'
p23
aS'-correlated-propagation'
=======
aS'-adce'
p13
aS'-indvars'
p14
aS'-loop-rotate'
p15
aS'-lazy-value-info'
p16
aS'-prune-eh'
p17
aS'-sink'
p18
aS'-ipsccp'
p19
aS'-reassociate'
p20
aS'-loop-idiom'
p21
aS'-loop-reduce'
p22
aS'-correlated-propagation'
p23
aS'-constmerge'
>>>>>>> 89eb17636a6cec1178414ea03d06e8d366702cf9
p24
aS'-scalarrepl-ssa'
p25
aS'-memdep'
p26
<<<<<<< HEAD
aS'-scalarrepl'
p27
aS'-loop-deletion'
p28
aS'-loop-deletion'
p29
aS'-globaldce'
p30
aS'-gvn'
p31
aS'-no-aa'
p32
aS'-correlated-propagation'
p33
aS'-globalopt'
p34
aS'-constmerge'
p35
aS'-tailcallelim'
p36
aS'-constprop'
p37
asS'fitness'
p38
I828
=======
aS'-loop-deletion'
p27
aS'-globaldce'
p28
aS'-gvn'
p29
aS'-no-aa'
p30
aS'-constmerge'
p31
aS'-tailcallelim'
p32
asS'fitness'
p33
I0
>>>>>>> 89eb17636a6cec1178414ea03d06e8d366702cf9
s.