(dp0
S'seq'
p1
(lp2
S'-scalarrepl'
p3
aS'-argpromotion'
p4
aS'-dce'
p5
aS'-constmerge'
p6
aS'-scalar-evolution'
p7
aS'-reassociate'
p8
aS'-die'
p9
aS'-inline'
p10
aS'-functionattrs'
p11
aS'-mergereturn'
p12
aS'-deadargelim'
p13
aS'-sccp'
p14
aS'-always-inline'
p15
aS'-lowerinvoke'
p16
asS'fitness'
p17
I674
s.