(dp0
S'seq'
p1
(lp2
S'-scalarrepl'
p3
aS'-adce'
p4
aS'-constmerge'
p5
aS'-loop-unroll'
p6
aS'-loweratomic'
p7
aS'-mergefunc'
p8
aS'-early-cse'
p9
aS'-loop-rotate'
p10
aS'-lowerinvoke'
p11
aS'-loops'
p12
aS'-mergefunc'
p13
aS'-inline'
p14
asS'fitness'
p15
I3547
s.