(dp0
S'seq'
p1
(lp2
S'-scalarrepl'
p3
aS'-loop-unroll'
p4
aS'-scalar-evolution'
p5
aS'-early-cse'
p6
aS'-domtree'
p7
aS'-instsimplify'
p8
aS'-lowerinvoke'
p9
aS'-constmerge'
p10
aS'-loops'
p11
aS'-mergefunc'
p12
aS'-loop-idiom'
p13
aS'-argpromotion'
p14
aS'-dce'
p15
aS'-constmerge'
p16
aS'-reassociate'
p17
aS'-globaldce'
p18
aS'-adce'
p19
aS'-die'
p20
aS'-basicaa'
p21
aS'-deadargelim'
p22
aS'-inline'
p23
aS'-functionattrs'
p24
aS'-sccp'
p25
asS'fitness'
p26
I0
s.