(dp0
S'seq'
p1
(lp2
S'-scalarrepl-ssa'
p3
aS'-loop-rotate'
p4
aS'-sink'
p5
aS'-sccp'
p6
aS'-lowerswitch'
p7
aS'-adce'
p8
aS'-constmerge'
p9
aS'-loop-simplify'
p10
aS'-no-aa'
p11
aS'-loop-unroll'
p12
aS'-scalar-evolution'
p13
aS'-adce'
p14
aS'-early-cse'
p15
aS'-partial-inliner'
p16
aS'-instsimplify'
p17
aS'-lowerinvoke'
p18
asS'fitness'
p19
I855
s.