(dp0
S'seq'
p1
(lp2
S'-domtree'
p3
aS'-loop-rotate'
p4
aS'-sccp'
p5
aS'-inline'
p6
aS'-adce'
p7
aS'-loop-simplify'
p8
aS'-ipconstprop'
p9
aS'-lazy-value-info'
p10
aS'-no-aa'
p11
aS'-scalarrepl'
p12
aS'-loop-unroll'
p13
aS'-constmerge'
p14
aS'-adce'
p15
aS'-early-cse'
p16
aS'-instsimplify'
p17
asS'fitness'
p18
I1016
s.