(dp0
S'seq'
p1
(lp2
S'-scalarrepl'
p3
aS'-loop-deletion'
p4
aS'-adce'
p5
aS'-always-inline'
p6
aS'-loop-unroll'
p7
aS'-scalar-evolution'
p8
aS'-early-cse'
p9
aS'-loop-rotate'
p10
aS'-lowerinvoke'
p11
aS'-loops'
p12
aS'-mergefunc'
p13
asS'fitness'
p14
I700
s.