(dp0
S'seq'
p1
(lp2
S'-scalarrepl'
p3
aS'-scalar-evolution'
p4
aS'-early-cse'
p5
aS'-instsimplify'
p6
aS'-globaldce'
p7
aS'-lowerinvoke'
p8
aS'-sink'
p9
aS'-instsimplify'
p10
aS'-mergefunc'
p11
aS'-codegenprepare'
p12
asS'fitness'
p13
I7953
s.