(dp0
S'seq'
p1
(lp2
S'-scalarrepl'
p3
aS'-constmerge'
p4
aS'-scalar-evolution'
p5
aS'-reassociate'
p6
aS'-die'
p7
aS'-constmerge'
p8
aS'-adce'
p9
aS'-functionattrs'
p9
aS'-sccp'
p10
aS'-lowerinvoke'
p11
asS'fitness'
p13
I1978
s.
