(dp0
S'seq'
p1
(lp2
S'-scalarrepl'
p3
aS'-globaldce'
p4
aS'-early-cse'
p5
aS'-instsimplify'
p6
aS'-functionattrs'
p7
aS'-loop-rotate'
p8
aS'-lowerinvoke'
p9
aS'-loops'
p10
aS'-deadargelim'
p11
aS'-mergefunc'
p12
aS'-instcombine'
p13
aS'-dce'
p14
aS'-basicaa'
p15
aS'-indvars'
p16
asS'fitness'
p17
I1900
s.