(dp0
S'seq'
p1
(lp2
S'-scalarrepl'
p3
aS'-adce'
p4
aS'-scalar-evolution'
p5
aS'-lazy-value-info'
p6
aS'-early-cse'
p7
aS'-instsimplify'
p8
aS'-loop-rotate'
p9
aS'-lowerinvoke'
p10
aS'-loops'
p11
aS'-deadargelim'
p12
aS'-mergefunc'
p13
asS'fitness'
p14
I862
s.