(dp0
S'seq'
p1
(lp2
S'-scalarrepl'
p3
aS'-globaldce'
p4
aS'-loop-idiom'
p5
aS'-argpromotion'
p6
aS'-dce'
p7
aS'-instsimplify'
p8
aS'-partial-inliner'
p9
aS'-targetlibinfo'
p10
aS'-reassociate'
p11
aS'-loops'
p12
aS'-scalarrepl'
p13
aS'-constmerge'
p14
aS'-sccp'
p15
aS'-lowerinvoke'
p16
asS'fitness'
p17
I1332503
s.