(dp0
S'seq'
p1
(lp2
S'-scalarrepl'
p3
aS'-loop-unroll'
p4
aS'-codegenprepare'
p5
aS'-constmerge'
p6
aS'-globaldce'
p7
aS'-adce'
p8
aS'-early-cse'
p9
aS'-loop-rotate'
p10
aS'-instsimplify'
p11
aS'-loop-rotate'
p12
asS'fitness'
p13
I6460
s.