(dp0
S'seq'
p1
(lp2
S'-scalarrepl'
p3
aS'-adce'
p4
aS'-deadargelim'
p5
aS'-functionattrs'
p6
aS'-scalar-evolution'
p7
aS'-instsimplify'
p8
aS'-loop-rotate'
p9
aS'-lowerinvoke'
p10
aS'-loops'
p11
aS'-mergefunc'
p12
asS'fitness'
p13
I495
s.