(dp0
S'seq'
p1
(lp2
S'-scalarrepl'
p3
aS'-loop-unroll'
p4
aS'-scalar-evolution'
p5
aS'-adce'
p6
aS'-early-cse'
p7
aS'-loop-rotate'
p8
aS'-globaldce'
p9
aS'-lowerinvoke'
p10
aS'-loop-idiom'
p11
aS'-argpromotion'
p12
aS'-dce'
p13
aS'-constmerge'
p14
aS'-die'
p15
aS'-deadargelim'
p16
aS'-inline'
p17
aS'-functionattrs'
p18
aS'-sccp'
p19
asS'fitness'
p20
I860
s.