(dp0
S'seq'
p1
(lp2
S'-scalarrepl'
p3
aS'-loop-deletion'
p4
aS'-loop-simplify'
p5
aS'-loop-rotate'
p6
aS'-argpromotion'
p7
aS'-dce'
p8
aS'-constmerge'
p9
aS'-scalar-evolution'
p10
aS'-die'
p11
aS'-adce'
p12
aS'-inline'
p13
aS'-loop-unroll'
p14
aS'-lowerinvoke'
p15
asS'fitness'
p16
I1000
s.