(dp0
S'seq'
p1
(lp2
S'-scalarrepl'
p3
aS'-loop-idiom'
p4
aS'-argpromotion'
p5
aS'-globaldce'
p6
aS'-dce'
p7
aS'-constmerge'
p8
aS'-reassociate'
p9
aS'-die'
p10
aS'-basicaa'
p11
aS'-inline'
p12
aS'-functionattrs'
p13
aS'-lowerinvoke'
p14
asS'fitness'
p15
I7941
s.