(dp0
S'seq'
p1
(lp2
S'-scalarrepl'
p3
aS'-instsimplify'
p4
aS'-inline'
p5
aS'-loop-unswitch'
p6
aS'-loop-idiom'
p7
aS'-adce'
p8
aS'-argpromotion'
p9
aS'-dce'
p10
aS'-constmerge'
p11
aS'-reassociate'
p12
aS'-constmerge'
p13
aS'-die'
p14
aS'-inline'
p15
aS'-functionattrs'
p16
aS'-sccp'
p17
asS'fitness'
p18
I10301
s.