(dp0
S'seq'
p1
(lp2
S'-scalarrepl'
p3
aS'-argpromotion'
p4
aS'-basicaa'
p5
aS'-scalar-evolution'
p6
aS'-inline'
p7
aS'-functionattrs'
p8
aS'-domtree'
p9
aS'-adce'
p10
aS'-lowerinvoke'
p11
asS'fitness'
p12
I1147
s.