(dp0
S'seq'
p1
(lp2
S'-scalarrepl'
p3
aS'-dce'
p4
aS'-codegenprepare'
p5
aS'-constmerge'
p6
aS'-dse'
p7
aS'-scalar-evolution'
p8
aS'-die'
p9
aS'-loop-deletion'
p10
aS'-adce'
p11
aS'-inline'
p12
aS'-functionattrs'
p13
aS'-constmerge'
p14
aS'-sccp'
p15
aS'-lowerinvoke'
p16
aS'-deadargelim'
p17
aS'-globaldce'
p18
asS'fitness'
p19
I999
s.