(dp0
S'seq'
p1
(lp2
S'-scalarrepl'
p3
aS'-adce'
p4
aS'-memdep'
p5
aS'-early-cse'
p6
aS'-loweratomic'
p7
aS'-globalopt'
p8
aS'-licm'
p9
aS'-die'
p10
aS'-instsimplify'
p11
aS'-tailcallelim'
p12
aS'-loop-rotate'
p13
aS'-strip-dead-prototypes'
p14
aS'-deadargelim'
p15
aS'-lowerinvoke'
p16
aS'-domtree'
p17
aS'-mergefunc'
p18
asS'fitness'
p19
I8885
s.