(dp0
S'seq'
p1
(lp2
S'-scalarrepl'
p3
aS'-constmerge'
p4
aS'-dce'
p5
aS'-constmerge'
p6
aS'-scalar-evolution'
p7
aS'-reassociate'
p8
aS'-die'
p9
aS'-functionattrs'
p10
aS'-sccp'
p11
aS'-lowerinvoke'
p12
asS'fitness'
p13
I1784
s.