(dp0
S'seq'
p1
(lp2
S'-scalarrepl'
p3
aS'-loop-idiom'
p4
aS'-argpromotion'
p5
aS'-dce'
p6
aS'-deadargelim'
p7
aS'-constmerge'
p8
aS'-constmerge'
p9
aS'-scalar-evolution'
p10
aS'-reassociate'
p11
aS'-inline'
p12
aS'-functionattrs'
p13
aS'-sccp'
p14
aS'-lowerinvoke'
p15
asS'fitness'
p16
I0
s.