(dp0
S'seq'
p1
(lp2
S'-scalarrepl'
p3
aS'-scalar-evolution'
p4
aS'-scalarrepl-ssa'
p5
aS'-lowerinvoke'
p6
aS'-adce'
p7
aS'-loops'
p8
aS'-deadargelim'
p9
aS'-ipsccp'
p10
aS'-mergefunc'
p11
asS'fitness'
p12
I6172
s.