(dp0
S'bubble_sort'
p1
(lp2
S'-scalarrepl-ssa'
p3
aS'-loop-deletion'
p4
aS'-codegenprepare'
p5
aS'-loop-rotate'
p6
aS'-targetlibinfo'
p7
aS'-sink'
p8
aS'-functionattrs'
p9
aS'-sccp'
p10
aS'-adce'
p11
aS'-constmerge'
p12
aS'-loop-simplify'
p13
aS'-lazy-value-info'
p14
aS'-no-aa'
p15
asS'pop_count'
p16
(lp17
S'-scalarrepl'
p18
aS'-argpromotion'
p19
aS'-dce'
p20
aS'-loop-reduce'
p21
ag14
aS'-lowerinvoke'
p22
aS'-loops'
p23
aS'-early-cse'
p24
aS'-simplifycfg'
p25
aS'-prune-eh'
p26
aS'-globalopt'
p27
asS'dsp_maxval'
p28
(lp29
S'scalarrepl'
p30
aS'-partial-inliner'
p31
aS'-domtree'
p32
aS'-indvars'
p33
ag14
ag26
ag8
ag23
aS'-ipsccp'
p34
aS'-reassociate'
p35
aS'-loop-idiom'
p36
aS'-loop-unroll'
p37
ag21
aS'-correlated-propagation'
p38
asS'dsp_autocor'
p39
(lp40
g18
ag37
aS'-scalar-evolution'
p41
ag24
aS'-instsimplify'
p42
ag6
ag22
asS'adpcm_decoder'
p43
(lp44
g18
aS'-mergereturn'
p45
ag13
aS'-basiccg'
p46
aS'-loop-instsimplify'
p47
aS'-lower-expect'
p48
aS'-jump-threading'
p49
aS'-loweratomic'
p50
aS'-die'
p51
ag33
ag24
ag32
asS'img_fdct_8x8'
p52
(lp53
g18
ag36
ag19
ag20
ag12
ag41
ag35
ag51
aS'-inline'
p54
ag9
ag10
ag22
asS'adpcm_coder'
p55
(lp56
g3
ag36
aS'-gvn'
p57
ag34
ag27
ag6
ag48
ag5
ag23
aS'-memcpyopt'
p58
ag4
asS'dsp_minval'
p59
(lp60
g3
ag6
aS'-memdep'
p61
ag8
ag4
aS'-globaldce'
p62
ag57
ag15
ag18
ag27
ag33
ag12
aS'-tailcallelim'
p63
ag31
aS'-constprop'
p64
asS'fibonacci'
p65
(lp66
g3
ag25
ag62
ag46
ag33
ag26
ag50
ag23
ag54
aS'-ipconstprop'
p67
ag32
ag48
ag45
asS'dsp_dotprod'
p68
(lp69
g18
ag23
aS'-mergefunc'
p70
asS'img_sobel'
p71
(lp72
g18
as.