(lp0
S'-scalarrepl-ssa'
p1
aS'-loop-deletion'
p2
aS'-codegenprepare'
p3
aS'-loop-rotate'
p4
aS'-targetlibinfo'
p5
aS'-sink'
p6
aS'-functionattrs'
p7
aS'-sccp'
p8
aS'-adce'
p9
aS'-constmerge'
p10
aS'-loop-simplify'
p11
aS'-lazy-value-info'
p12
aS'-no-aa'
p13
aS'-scalarrepl'
p14
aS'-loop-unroll'
p15
aS'-scalar-evolution'
p16
aS'-early-cse'
p17
aS'-instsimplify'
p18
aS'-lowerinvoke'
p19
a.