(dp0
S'seq'
p1
(lp2
S'-scalarrepl'
p3
aS'-inline'
p4
aS'-loop-idiom'
p5
aS'-constmerge'
p6
aS'-scalar-evolution'
p7
aS'-instsimplify'
p8
aS'-loop-rotate'
p9
aS'-ipconstprop'
p10
aS'-lowerinvoke'
p11
aS'-loops'
p12
aS'-mergefunc'
p13
asS'fitness'
p14
I3802
s.