(dp0
S'seq'
p1
(lp2
S'-scalarrepl'
p3
aS'-scalar-evolution'
p4
aS'-jump-threading'
p5
aS'-instsimplify'
p6
aS'-instsimplify'
p7
aS'-lowerinvoke'
p8
aS'-globaldce'
p9
aS'-adce'
p10
aS'-loops'
p11
aS'-mergefunc'
p12
aS'-ipsccp'
p13
asS'fitness'
p14
I2835
s.