(dp0
S'seq'
p1
(lp2
S'-scalarrepl'
p3
aS'-early-cse'
p4
aS'-instsimplify'
p5
aS'-always-inline'
p6
aS'-loop-rotate'
p7
aS'-lowerinvoke'
p8
aS'-loops'
p9
aS'-mergefunc'
p10
aS'scalarrepl'
p11
aS'-partial-inliner'
p12
aS'-domtree'
p13
aS'-indvars'
p14
aS'-lazy-value-info'
p15
aS'-prune-eh'
p16
aS'-adce'
p17
aS'-loops'
p18
aS'-sink'
p19
aS'-ipsccp'
p20
aS'-instsimplify'
p21
aS'-reassociate'
p22
aS'-loop-reduce'
p23
aS'-correlated-propagation'
p24
aS'-constmerge'
p25
aS'-scalarrepl-ssa'
p26
aS'-memdep'
p27
aS'-loop-deletion'
p28
aS'-globaldce'
p29
aS'-gvn'
p30
aS'-no-aa'
p31
aS'-loop-unroll'
p32
aS'-globalopt'
p33
aS'-constmerge'
p34
aS'-tailcallelim'
p35
aS'-constprop'
p36
asS'fitness'
p37
I0
s.