(dp0
S'seq'
p1
(lp2
S'-scalarrepl'
p3
aS'-adce'
p4
aS'-argpromotion'
p5
aS'-constmerge'
p6
aS'-loop-instsimplify'
p7
aS'-constmerge'
p8
aS'-codegenprepare'
p9
aS'-scalar-evolution'
p10
aS'-reassociate'
p11
aS'-die'
p12
aS'-inline'
p13
aS'-functionattrs'
p14
aS'-loop-rotate'
p15
aS'-sccp'
p16
aS'-lowerinvoke'
p17
asS'fitness'
p18
I544
s.