(dp0
S'seq'
p1
(lp2
S'-scalarrepl'
p3
aS'-loop-unroll'
p4
aS'-die'
p5
aS'-constmerge'
p6
aS'-early-cse'
p7
aS'-loop-rotate'
p8
aS'-lowerinvoke'
p9
aS'-loop-rotate'
p10
aS'-loops'
p11
aS'-partial-inliner'
p12
aS'-adce'
p13
aS'-mergefunc'
p14
asS'fitness'
p15
I6510
s.
