(dp0
S'seq'
p1
(lp2
S'-scalarrepl'
p3
aS'-loop-unroll'
p4
aS'-loop-rotate'
p5
aS'-lowerinvoke'
p6
aS'-loops'
p7
aS'-mergefunc'
p8
aS'scalarrepl'
p9
aS'-adce'
p10
aS'-domtree'
p11
aS'-indvars'
p12
aS'-lazy-value-info'
p13
aS'-prune-eh'
p14
aS'-sink'
p15
aS'-sccp'
p16
aS'-ipsccp'
p17
aS'-reassociate'
p18
aS'-loop-idiom'
p19
aS'-loop-reduce'
p20
aS'-correlated-propagation'
p21
aS'-memdep'
p22
aS'-loop-deletion'
p23
aS'-globaldce'
p24
aS'-gvn'
p25
aS'-no-aa'
p26
aS'-globaldce'
p27
aS'-globalopt'
p28
aS'-constmerge'
p29
aS'-tailcallelim'
p30
aS'-constprop'
p31
asS'fitness'
p32
I1437
s.