(dp0
S'seq'
p1
(lp2
S'-scalarrepl'
p3
aS'-inline'
p4
aS'-scalar-evolution'
p5
aS'-early-cse'
p6
aS'-constmerge'
p7
aS'-lowerinvoke'
p8
aS'-adce'
p9
aS'-mergefunc'
p10
aS'-scalar-evolution'
p11
asS'fitness'
p12
I1941
s.