(dp0
S'seq'
p1
(lp2
S'-scalarrepl'
p3
aS'-loop-unroll'
p4
aS'-early-cse'
p5
aS'-loop-rotate'
p6
aS'-adce'
p7
aS'-instsimplify'
p8
aS'-lowerinvoke'
p9
aS'-loops'
p10
aS'-simplifycfg'
p11
aS'-strip-dead-prototypes'
p12
asS'fitness'
p13
I997
s.