(dp0
S'seq'
p1
(lp2
S'-scalarrepl'
p3
aS'-scalar-evolution'
p4
aS'-early-cse'
p5
aS'-instsimplify'
p6
aS'-no-aa'
p7
aS'-loop-rotate'
p8
aS'-globaldce'
p9
aS'-loops'
p10
aS'scalarrepl'
p11
aS'-partial-inliner'
p12
aS'-domtree'
p13
aS'-indvars'
p14
aS'-lazy-value-info'
p15
aS'-prune-eh'
p16
aS'-constmerge'
p17
aS'-loop-rotate'
p18
aS'-ipsccp'
p19
aS'-reassociate'
p20
aS'-loop-idiom'
p21
aS'-loop-reduce'
p22
aS'-scalarrepl-ssa'
p23
aS'-memdep'
p24
aS'-loop-deletion'
p25
aS'-globaldce'
p26
aS'-gvn'
p27
aS'-no-aa'
p28
aS'-globalopt'
p29
aS'-constmerge'
p30
aS'-tailcallelim'
p31
aS'-constprop'
p32
asS'fitness'
p33
I0
s.