(dp0
S'seq'
p1
(lp2
S'-scalarrepl'
p3
aS'-lazy-value-info'
p4
aS'-early-cse'
p5
aS'-adce'
p6
aS'-loop-rotate'
p7
aS'-instsimplify'
p8
aS'-constmerge'
p9
aS'-loop-rotate'
p10
aS'-lowerinvoke'
p11
aS'-basiccg'
p12
aS'-loops'
p13
aS'-loop-deletion'
p14
aS'-mergefunc'
p15
asS'fitness'
p16
I2182
s.