(dp0
S'seq'
p1
(lp2
S'-scalarrepl-ssa'
p3
aS'-loop-idiom'
p4
aS'-deadargelim'
p5
aS'-ipsccp'
p6
aS'-codegenprepare'
p7
aS'-loops'
p8
aS'-memcpyopt'
p9
aS'-loop-deletion'
p10
aS'-adce'
p11
aS'-scalarrepl'
p12
aS'-argpromotion'
p13
aS'-constmerge'
p14
aS'-scalar-evolution'
p15
aS'-die'
p16
aS'-inline'
p17
aS'-sccp'
p18
aS'-lowerinvoke'
p19
aS'-loops'
p20
aS'-constmerge'
p21
aS'-loop-rotate'
p22
asS'fitness'
p23
I3088
s.