(dp0
S'seq'
p1
(lp2
S'-scalarrepl'
p3
aS'-instsimplify'
p4
aS'-lowerinvoke'
p5
aS'-loops'
p6
aS'-mergefunc'
p7
aS'scalarrepl'
p8
aS'-partial-inliner'
p9
aS'-domtree'
p10
aS'-indvars'
p11
aS'-constmerge'
p12
aS'-partial-inliner'
p13
aS'-lazy-value-info'
p14
aS'-prune-eh'
p15
aS'-sink'
p16
aS'-ipsccp'
p17
aS'-reassociate'
p18
aS'-loop-idiom'
p19
aS'-loop-reduce'
p20
aS'-correlated-propagation'
p21
aS'-scalarrepl-ssa'
p22
aS'-memdep'
p23
aS'-loop-deletion'
p24
aS'-globaldce'
p25
aS'-gvn'
p26
aS'-no-aa'
p27
aS'-globalopt'
p28
aS'-adce'
p29
aS'-constmerge'
p30
aS'-deadargelim'
p31
aS'-tailcallelim'
p32
aS'-constprop'
p33
asS'fitness'
p34
I385
s.