(dp0
S'seq'
p1
(lp2
S'-scalarrepl'
p3
aS'-scalar-evolution'
p4
aS'-early-cse'
p5
aS'-no-aa'
p6
aS'-instsimplify'
p7
aS'-loop-rotate'
p8
aS'-lowerinvoke'
p9
aS'-partial-inliner'
p10
aS'-domtree'
p11
aS'-indvars'
p12
aS'-adce'
p13
aS'-deadargelim'
p14
aS'-lazy-value-info'
p15
aS'-prune-eh'
p16
aS'-sink'
p17
aS'-ipsccp'
p18
aS'-reassociate'
p19
aS'-constmerge'
p20
aS'-loop-deletion'
p21
aS'-loop-idiom'
p22
aS'-loop-reduce'
p23
aS'-correlated-propagation'
p24
aS'-scalarrepl-ssa'
p25
aS'-memdep'
p26
aS'-loop-deletion'
p27
aS'-gvn'
p28
aS'-no-aa'
p29
aS'-globalopt'
p30
aS'-constmerge'
p31
aS'-tailcallelim'
p32
aS'-dce'
p33
aS'-constprop'
p34
aS'-inline'
p35
asS'fitness'
p36
I458
s.