(dp0
S'seq'
p1
(lp2
S'-scalarrepl'
p3
aS'-indvars'
p4
aS'-globaldce'
p5
aS'-loop-idiom'
p6
aS'-memdep'
p7
aS'-constmerge'
p8
aS'-mergefunc'
p9
aS'-loops'
p10
aS'-reassociate'
p11
aS'-lazy-value-info'
p12
aS'-instsimplify'
p13
aS'-gvn'
p14
aS'-loop-reduce'
p15
asS'fitness'
p16
I1771
s.