(dp0
S'seq'
p1
(lp2
S'-scalarrepl'
p3
aS'-loop-deletion'
p4
aS'-constprop'
p5
aS'-globalopt'
p6
aS'-gvn'
p7
aS'-early-cse'
p8
aS'-indvars'
p9
aS'-tailcallelim'
p10
aS'-reassociate'
p11
aS'-lowerinvoke'
p12
aS'-prune-eh'
p13
aS'-partial-inliner'
p14
aS'-mergefunc'
p15
aS'-loop-reduce'
p16
aS'-instsimplify'
p17
aS'-domtree'
p18
asS'fitness'
p19
I820
s.