(dp0
S'seq'
p1
(lp2
S'-scalarrepl'
p3
aS'-early-cse'
p4
aS'-lowerinvoke'
p5
aS'-scalar-evolution'
p6
aS'-loop-unroll'
p7
aS'-loop-rotate'
p8
aS'-mergefunc'
p9
aS'-instsimplify'
p10
asS'fitness'
p11
I508
s.