(dp0
S'adpcm_decoder'
p1
((lp2
S'-scalarrepl'
p3
aS'-mergereturn'
p4
aS'-loop-simplify'
p5
aS'-basiccg'
p6
aS'-loop-instsimplify'
p7
aS'-lower-expect'
p8
aS'-jump-threading'
p9
aS'-loweratomic'
p10
aS'-die'
p11
aS'-indvars'
p12
aS'-early-cse'
p13
aS'-domtree'
p14
aI148913
F3063.1384439468384
tp15
s.