(dp0
S'bubble_sort'
p1
((lp2
S'-scalarrepl-ssa'
p3
aS'-loop-deletion'
p4
aS'-codegenprepare'
p5
aS'-loop-rotate'
p6
aS'-targetlibinfo'
p7
aS'-sink'
p8
aS'-functionattrs'
p9
aS'-sccp'
p10
aS'-adce'
p11
aS'-constmerge'
p12
aS'-loop-simplify'
p13
aS'-lazy-value-info'
p14
aS'-no-aa'
p15
aI691
F15307.59403181076
tp16
s.