(dp0
S'dsp_minerror'
p1
((lp2
S'-scalarrepl'
p3
aS'-inline'
p4
aS'-early-cse'
p5
aS'-targetlibinfo'
p6
aS'-dse'
p7
aS'-domtree'
p8
aS'-loops'
p9
aS'-scalar-evolution'
p10
aS'-memdep'
p11
aS'-loop-instsimplify'
p12
aS'-constmerge'
p13
aI2828
F1275.8739740848541
tp14
s.