(dp0
S'dsp_firlms2'
p1
((lp2
S'-scalarrepl'
p3
aS'-ipconstprop'
p4
aS'-always-inline'
p5
aS'-reassociate'
p6
aS'-correlated-propagation'
p7
aS'-loweratomic'
p8
aS'-lower-expect'
p9
aS'-ipsccp'
p10
aS'-deadargelim'
p11
aI111
F1746.5014839172363
tp12
s.