(dp0
S'dsp_minval'
p1
((lp2
S'-scalarrepl-ssa'
p3
aS'-loop-rotate'
p4
aS'-memdep'
p5
aS'-sink'
p6
aS'-loop-deletion'
p7
aS'-globaldce'
p8
aS'-gvn'
p9
aS'-no-aa'
p10
aS'-scalarrepl'
p11
aS'-globalopt'
p12
aS'-indvars'
p13
aS'-constmerge'
p14
aS'-tailcallelim'
p15
aS'-partial-inliner'
p16
aS'-constprop'
p17
aI486
F19146.33970594406
tp18
s.