(dp0
S'dsp_blk_eswap16'
p1
((lp2
S'-scalarrepl-ssa'
p3
aS'-indvars'
p4
aS'-early-cse'
p5
aS'-mergefunc'
p6
aS'-tbaa'
p7
aS'-globaldce'
p8
aS'-constmerge'
p9
aS'-argpromotion'
p10
aS'-simplifycfg'
p11
aS'-adce'
p12
aS'-prune-eh'
p13
aS'-scalar-evolution'
p14
aI534
F18837.35424900055
tp15
s.