(dp0
S'dsp_mat_trans'
p1
((lp2
S'-scalarrepl-ssa'
p3
aS'-tbaa'
p4
aS'-scalarrepl'
p5
aS'-loop-rotate'
p6
aS'-dce'
p7
aS'-always-inline'
p8
aS'-indvars'
p9
aS'-early-cse'
p10
aS'-codegenprepare'
p11
aS'-loop-idiom'
p12
aI2919
F1744.3037869930267
tp13
s.