(dp0
S'dsp_blk_eswap64'
p1
((lp2
S'-scalarrepl-ssa'
p3
aS'-loop-reduce'
p4
aS'-instsimplify'
p5
aS'-adce'
p6
aS'-domtree'
p7
aS'-basiccg'
p8
aS'-ipsccp'
p9
aS'-deadargelim'
p10
aS'-lower-expect'
p11
aS'-argpromotion'
p12
aS'-loop-rotate'
p13
aS'-mergereturn'
p14
aS'-functionattrs'
p15
aS'-lazy-value-info'
p16
aI665
F1716.6858718395233
tp17
s.