(dp0
S'dsp_maxidx'
p1
((lp2
S'-scalarrepl-ssa'
p3
aS'-ipsccp'
p4
aS'-argpromotion'
p5
aS'-lower-expect'
p6
aS'-globalopt'
p7
aS'-early-cse'
p8
aS'-loop-deletion'
p9
aS'-codegenprepare'
p10
aS'-adce'
p11
aI602
F1245.828871011734
tp12
s.