(dp0
S'dsp_mat_mul'
p1
((lp2
S'-gvn'
p3
aS'-sccp'
p4
aS'-functionattrs'
p5
aS'-constprop'
p6
aS'-codegenprepare'
p7
aS'-deadargelim'
p8
aS'-lowerswitch'
p9
aS'-ipsccp'
p10
aS'-no-aa'
p11
aS'-loop-idiom'
p12
aS'-jump-threading'
p13
aS'-adce'
p14
aS'-licm'
p15
aS'-globalopt'
p16
aI2180
F1729.8841540813446
tp17
s.