(dp0
S'dsp_vecsumsq'
p1
((lp2
S'-lowerswitch'
p3
aS'-loop-idiom'
p4
aS'-loweratomic'
p5
aS'-basicaa'
p6
aS'-reassociate'
p7
aS'-domtree'
p8
aS'-dce'
p9
aS'-argpromotion'
p10
aS'-basiccg'
p11
aS'-gvn'
p12
aS'-loop-unroll'
p13
aI824
F1243.6614990234375
tp14
s.