(dp0
S'dsp_neg32'
p1
((lp2
S'-scalarrepl-ssa'
p3
aS'-ipsccp'
p4
aS'-loop-unroll'
p5
aS'-basiccg'
p6
aS'-reassociate'
p7
aS'-loop-reduce'
p8
aS'-prune-eh'
p9
aS'-indvars'
p10
aS'-no-aa'
p11
aS'-loop-instsimplify'
p12
aS'-lowerswitch'
p13
aS'-mergefunc'
p14
aI1735
F1266.8399200439453
tp15
s.