(dp0
S'dsp_blk_move'
p1
((lp2
S'-scalarrepl'
p3
aS'-lowerinvoke'
p4
aS'-lcssa'
p5
aS'-mergereturn'
p6
aS'-no-aa'
p7
aS'-jump-threading'
p8
aS'-lazy-value-info'
p9
aS'-loop-unswitch'
p10
aS'-loop-instsimplify'
p11
aS'-tbaa'
p12
aS'-loop-rotate'
p13
aI344
F19290.68916106224
tp14
s.