(dp0
S'dsp_maxval'
p1
((lp2
S'-scalarrepl'
p3
aS'-partial-inliner'
p4
aS'-domtree'
p5
aS'-indvars'
p6
aS'-lazy-value-info'
p7
aS'-prune-eh'
p8
aS'-sink'
p9
aS'-loops'
p10
aS'-ipsccp'
p11
aS'-reassociate'
p12
aS'-loop-idiom'
p13
aS'-loop-unroll'
p14
aS'-loop-reduce'
p15
aS'-correlated-propagation'
p16
aI525
F19192.415373802185
tp17
s.