(dp0
S'dsp_fir_cplx'
p1
((lp2
S'-scalarrepl-ssa'
p3
aS'-dse'
p4
aS'-prune-eh'
p5
aS'-memcpyopt'
p6
aS'-partial-inliner'
p7
aS'-constprop'
p8
aS'-basiccg'
p9
aS'-deadargelim'
p10
aS'-lcssa'
p11
aS'-argpromotion'
p12
aS'-memdep'
p13
aS'-tailcallelim'
p14
aS'-licm'
p15
aS'-indvars'
p16
aI703
F17512.571919202805
tp17
s.