(dp0
S'fibonacci'
p1
((lp2
S'-scalarrepl-ssa'
p3
aS'-simplifycfg'
p4
aS'-globaldce'
p5
aS'-basiccg'
p6
aS'-indvars'
p7
aS'-prune-eh'
p8
aS'-loweratomic'
p9
aS'-loops'
p10
aS'-inline'
p11
aS'-ipconstprop'
p12
aS'-domtree'
p13
aS'-lower-expect'
p14
aS'-mergereturn'
p15
aI409
F15181.443866968155
tp16
s.