(lp0
S'-adce'
p1
aS'-constmerge'
p2
aS'-deadargelim'
p3
aS'-globaldce'
p4
aS'-inline'
p5
aS'-ipconstprop'
p6
aS'-loop-deletion'
p7
aS'-loop-rotate'
p8
aS'-loops'
p9
aS'-lowerswitch'
p10
aS'-partial-inliner'
p11
aS'-sccp'
p12
aS'-tailcallelim'
p13
aS'-basicaa'
p14
aS'-domtree'
p15
aS'-memdep'
p16
aS'-always-inline'
p17
aS'-constprop'
p18
aS'-die'
p19
aS'-globalopt'
p20
aS'-instcombine'
p21
aS'-ipsccp'
p22
aS'-loop-idiom'
p23
aS'-loop-simplify'
p24
aS'-lower-expect'
p25
aS'-memcpyopt'
p26
aS'-prune-eh'
p27
aS'-targetlibinfo'
p28
aS'-basiccg'
p29
aS'-lazy-value-info'
p30
aS'-strip-dead-prototypes'
p31
aS'-argpromotion'
p32
aS'-correlated-propagation'
p33
aS'-dse'
p34
aS'-gvn'
p35
aS'-instsimplify'
p36
aS'-jump-threading'
p37
aS'-loop-instsimplify'
p38
aS'-loop-unroll'
p39
aS'-loweratomic'
p40
aS'-mergefunc'
p41
aS'-reassociate'
p42
aS'-simplifycfg'
p43
aS'-no-aa'
p44
aS'-functionattrs'
p45
aS'-lcssa'
p46
aS'-codegenprepare'
p47
aS'-dce'
p48
aS'-early-cse'
p49
aS'-indvars'
p50
aS'-licm'
p51
aS'-loop-reduce'
p52
aS'-loop-unswitch'
p53
aS'-lowerinvoke'
p54
aS'-mergereturn'
p55
aS'-scalarrepl'
p56
aS'-sink'
p57
aS'-tbaa'
p58
aS'-scalarrepl-ssa'
p59
aS'-scalar-evolution'
p60
a.