(dp0
S'img_wave_horz'
p1
((lp2
S'-scalarrepl-ssa'
p3
aS'-basicaa'
p4
aS'-codegenprepare'
p5
aS'-constmerge'
p6
aS'-partial-inliner'
p7
aS'-functionattrs'
p8
aS'-dce'
p9
aS'-loop-deletion'
p10
aS'-loop-unroll'
p11
aS'-loop-rotate'
p12
aS'-tbaa'
p13
aS'-argpromotion'
p14
aI6818
F1262.3137679100037
tp15
s.