(dp0
S'img_dilate_bin'
p1
((lp2
S'-scalarrepl'
p3
aS'-globalopt'
p4
aS'-loop-unswitch'
p5
aS'-dce'
p6
aS'-loops'
p7
aS'-reassociate'
p8
aS'-loweratomic'
p9
aS'-loop-rotate'
p10
aS'-basiccg'
p11
aS'-domtree'
p12
aI964
F15959.673501968384
tp13
s.