(dp0
S'img_yc_demux_be16'
p1
((lp2
S'-die'
p3
aS'-early-cse'
p4
aS'-constprop'
p5
aS'-gvn'
p6
aS'-codegenprepare'
p7
aS'-loop-rotate'
p8
aS'-loop-idiom'
p9
aS'-no-aa'
p10
aI468
F1788.603896856308
tp11
s.