(dp0
S'img_mad_8x8'
p1
((lp2
S'-instcombine'
p3
aS'-domtree'
p4
aS'-die'
p5
aS'-indvars'
p6
aS'-targetlibinfo'
p7
aS'-lcssa'
p8
aS'-mergereturn'
p9
aS'-reassociate'
p10
aI78
F19045.797518968582
tp11
s.