(dp0
S'img_sad_8x8'
p1
((lp2
S'-scalarrepl-ssa'
p3
aS'-loweratomic'
p4
aS'-globalopt'
p5
aS'-dce'
p6
aS'-always-inline'
p7
aS'-sccp'
p8
aS'-indvars'
p9
aS'-loop-idiom'
p10
aS'-loop-unswitch'
p11
aI815
F1256.029888868332
tp12
s.