(dp0
S'img_pix_sat'
p1
((lp2
S'-scalarrepl-ssa'
p3
aS'-ipconstprop'
p4
aS'-lowerinvoke'
p5
aS'-die'
p6
aS'-memdep'
p7
aS'-lower-expect'
p8
aS'-no-aa'
p9
aS'-partial-inliner'
p10
aS'-instcombine'
p11
aS'-lazy-value-info'
p12
aS'-constmerge'
p13
aS'-always-inline'
p14
aS'-loop-unroll'
p15
aS'-scalar-evolution'
p16
aI5691
F13845.004559993744
tp17
s.