(dp0
S'img_yc_demux_le16'
p1
((lp2
S'-scalarrepl-ssa'
p3
aS'-sccp'
p4
aS'-sink'
p5
aS'-always-inline'
p6
aS'-constprop'
p7
aS'-lcssa'
p8
aS'-die'
p9
aS'-memdep'
p10
aS'-basicaa'
p11
aS'-codegenprepare'
p12
aS'-dse'
p13
aS'-loweratomic'
p14
aI373
F1720.575709104538
tp15
s.