(dp0
S'img_idct_8x8_12q4'
p1
((lp2
S'-scalarrepl'
p3
aS'-licm'
p4
aS'-globaldce'
p5
aS'-loop-reduce'
p6
aS'-die'
p7
aS'-instsimplify'
p8
aS'-tailcallelim'
p9
aS'-reassociate'
p10
aS'-domtree'
p11
aS'-adce'
p12
aS'-tbaa'
p13
aS'-memdep'
p14
aS'-codegenprepare'
p15
aS'-loop-unroll'
p16
aI148
F1907.738914012909
tp17
s.