(dp0
S'img_sad_16x16'
p1
((lp2
S'-scalarrepl'
p3
aS'-partial-inliner'
p4
aS'-loop-unroll'
p5
aS'-gvn'
p6
aS'-loweratomic'
p7
aS'-mergefunc'
p8
aS'-constmerge'
p9
aS'-sink'
p10
aS'-loop-instsimplify'
p11
aS'-tailcallelim'
p12
aS'-basiccg'
p13
aS'-licm'
p14
aI1279
F1278.6907589435577
tp15
s.