(dp0
S'img_boundary'
p1
((lp2
S'-scalarrepl-ssa'
p3
aS'-targetlibinfo'
p4
aS'-sccp'
p5
aS'-globalopt'
p6
aS'-lcssa'
p7
aS'-lazy-value-info'
p8
aS'-adce'
p9
aS'-memcpyopt'
p10
aS'-loop-rotate'
p11
aS'-scalar-evolution'
p12
aS'-strip-dead-prototypes'
p13
aS'-loop-instsimplify'
p14
aI825
F18839.28268790245
tp15
s.