(dp0
S'img_perimeter'
p1
((lp2
S'-scalarrepl-ssa'
p3
aS'-tbaa'
p4
aS'-no-aa'
p5
aS'-loweratomic'
p6
aS'-prune-eh'
p7
aS'-globaldce'
p8
aS'-sink'
p9
aS'-scalar-evolution'
p10
aS'-loop-reduce'
p11
aS'-deadargelim'
p12
aS'-globalopt'
p13
aI488
F19253.95733809471
tp14
s.