(dp0
S'pop_count'
p1
((lp2
S'-scalarrepl'
p3
aS'-argpromotion'
p4
aS'-dce'
p5
aS'-loop-reduce'
p6
aS'-lazy-value-info'
p7
aS'-lowerinvoke'
p8
aS'-loops'
p9
aS'-early-cse'
p10
aS'-simplifycfg'
p11
aS'-prune-eh'
p12
aS'-globalopt'
p13
aI368
F12354.651640892029
tp14
s.