(dp0
S'dsp_minval.c'
p1
(lp2
S'-scalarrepl-ssa'
p3
aS'-loop-rotate'
p4
aS'-memdep'
p5
aS'-sink'
p6
aS'-loop-deletion'
p7
aS'-globaldce'
p8
aS'-gvn'
p9
aS'-no-aa'
p10
aS'-scalarrepl'
p11
aS'-globalopt'
p12
aS'-indvars'
p13
aS'-constmerge'
p14
aS'-tailcallelim'
p15
aS'-partial-inliner'
p16
aS'-constprop'
p17
asS'dsp_maxval.c'
p18
(lp19
S'scalarrepl'
p20
ag16
aS'-domtree'
p21
ag13
aS'-lazy-value-info'
p22
aS'-prune-eh'
p23
ag6
aS'-loops'
p24
aS'-ipsccp'
p25
aS'-reassociate'
p26
aS'-loop-idiom'
p27
aS'-loop-unroll'
p28
aS'-loop-reduce'
p29
aS'-correlated-propagation'
p30
asS'fibonacci.c'
p31
(lp32
g3
aS'-simplifycfg'
p33
ag8
aS'-basiccg'
p34
ag13
ag23
aS'-loweratomic'
p35
ag24
aS'-inline'
p36
aS'-ipconstprop'
p37
ag21
aS'-lower-expect'
p38
aS'-mergereturn'
p39
asS'dsp_dotprod.c'
p40
(lp41
g11
ag24
aS'-mergefunc'
p42
asS'adpcm_decoder.c'
p43
(lp44
g11
ag39
aS'-loop-simplify'
p45
ag34
aS'-loop-instsimplify'
p46
ag38
aS'-jump-threading'
p47
ag35
aS'-die'
p48
ag13
aS'-early-cse'
p49
ag21
asS'pop_count.c'
p50
(lp51
g11
aS'-argpromotion'
p52
aS'-dce'
p53
ag29
ag22
aS'-lowerinvoke'
p54
ag24
ag49
ag33
ag23
ag12
asS'img_sobel.c'
p55
(lp56
g11
asS'bubble_sort.c'
p57
(lp58
g3
ag7
aS'-codegenprepare'
p59
ag4
aS'-targetlibinfo'
p60
ag6
aS'-functionattrs'
p61
aS'-sccp'
p62
aS'-adce'
p63
ag14
ag45
ag22
ag10
asS'adpcm_coder.c'
p64
(lp65
g3
ag27
ag9
ag25
ag12
ag4
ag38
ag59
ag24
aS'-memcpyopt'
p66
ag7
asS'img_fdct_8x8.c'
p67
(lp68
g11
ag27
ag52
ag53
ag14
aS'-scalar-evolution'
p69
ag26
ag48
ag36
ag61
ag62
ag54
asS'dsp_autocor.c'
p70
(lp71
g11
ag28
ag69
ag49
aS'-instsimplify'
p72
ag4
ag54
as.