(dp0
S'seq'
p1
(lp2
S'-scalarrepl'
p3
aS'-early-cse'
p4
aS'-loop-rotate'
p5
aS'-lowerinvoke'
p6
aS'-partial-inliner'
p7
aS'-domtree'
p8
aS'-indvars'
p9
aS'-lazy-value-info'
p10
aS'-prune-eh'
p11
aS'-sink'
p12
aS'-loops'
p13
aS'-reassociate'
p14
aS'-loop-idiom'
p15
aS'-loop-reduce'
p16
aS'-correlated-propagation'
p17
aS'-scalarrepl-ssa'
p18
aS'-memdep'
p19
aS'-loop-deletion'
p20
aS'-globaldce'
p21
aS'-gvn'
p22
aS'-no-aa'
p23
aS'-globalopt'
p24
aS'-constmerge'
p25
aS'-tailcallelim'
p26
aS'-constprop'
p27
asS'fitness'
p28
I601
s.