(dp0
S'seq'
p1
(lp2
S'-scalarrepl'
p3
aS'-loop-unroll'
p4
aS'-scalar-evolution'
p5
aS'-instsimplify'
p6
aS'-loop-rotate'
p7
aS'-lowerinvoke'
p8
aS'-partial-inliner'
p9
aS'-indvars'
p10
aS'-lazy-value-info'
p11
aS'-prune-eh'
p12
aS'-sink'
p13
aS'-loops'
p14
aS'-ipsccp'
p15
aS'-reassociate'
p16
aS'-loop-idiom'
p17
aS'-loop-reduce'
p18
aS'-correlated-propagation'
p19
aS'-memdep'
p20
aS'-loop-deletion'
p21
aS'-globaldce'
p22
aS'-gvn'
p23
aS'-no-aa'
p24
aS'-globalopt'
p25
aS'-constmerge'
p26
aS'-tailcallelim'
p27
aS'-constprop'
p28
asS'fitness'
p29
I1838
s.