(dp0
S'seq'
p1
(lp2
S'-scalarrepl-ssa'
p3
aS'-codegenprepare'
p4
aS'-loop-rotate'
p5
aS'-targetlibinfo'
p6
aS'-functionattrs'
p7
aS'-sccp'
p8
aS'-adce'
p9
aS'-constmerge'
p10
aS'-loop-simplify'
p11
aS'-no-aa'
p12
aS'-scalarrepl'
p13
aS'-loops'
p14
aS'-mergefunc'
p15
aS'-simplifycfg'
p16
aS'-globaldce'
p17
aS'-basiccg'
p18
aS'-indvars'
p19
aS'-prune-eh'
p20
aS'-loweratomic'
p21
aS'-inline'
p22
aS'-ipconstprop'
p23
aS'-domtree'
p24
aS'-lower-expect'
p25
aS'-mergereturn'
p26
asS'fitness'
p27
I1290
s.