(dp0
S'seq'
p1
(lp2
S'-loop-deletion'
p3
aS'-codegenprepare'
p4
aS'-loop-rotate'
p5
aS'-targetlibinfo'
p6
aS'-sink'
p7
aS'-functionattrs'
p8
aS'-sccp'
p9
aS'-adce'
p10
aS'-constmerge'
p11
aS'-loop-simplify'
p12
aS'-lazy-value-info'
p13
aS'-no-aa'
p14
aS'-scalarrepl'
p15
aS'-loop-unroll'
p16
aS'-scalar-evolution'
p17
aS'-instsimplify'
p18
aS'-lowerinvoke'
p19
asS'fitness'
p20
I979
s.