(dp0
S'seq'
p1
(lp2
S'-scalarrepl'
p3
aS'-loop-rotate'
p4
aS'-partial-inliner'
p5
aS'-domtree'
p6
aS'-lazy-value-info'
p7
aS'-prune-eh'
p8
aS'-sink'
p9
aS'-loops'
p10
aS'-ipsccp'
p11
aS'-reassociate'
p12
aS'-loop-idiom'
p13
aS'-loop-reduce'
p14
aS'-correlated-propagation'
p15
aS'-scalarrepl-ssa'
p16
aS'-memdep'
p17
aS'-globaldce'
p18
aS'-gvn'
p19
aS'-no-aa'
p20
aS'-globalopt'
p21
aS'-constmerge'
p22
aS'-tailcallelim'
p23
aS'-constprop'
p24
asS'fitness'
p25
I498
s.