(dp0
S'seq'
p1
(lp2
S'-scalarrepl-ssa'
p3
aS'-loop-reduce'
p4
aS'-loops'
p5
aS'-scalarrepl'
p6
aS'-no-aa'
p7
aS'-partial-inliner'
p8
aS'-globaldce'
p9
aS'-lowerinvoke'
p10
aS'-sink'
p11
aS'-constprop'
p12
aS'-memdep'
p13
aS'-correlated-propagation'
p14
aS'-reassociate'
p15
aS'-loop-idiom'
p16
aS'-lazy-value-info'
p17
aS'-instsimplify'
p18
aS'-loop-unroll'
p19
aS'-ipsccp'
p20
aS'-tailcallelim'
p21
aS'-scalar-evolution'
p22
aS'-prune-eh'
p23
aS'-loop-deletion'
p24
aS'-domtree'
p25
aS'-indvars'
p26
aS'-loop-rotate'
p27
aS'-gvn'
p28
aS'-constmerge'
p29
asS'fitness'
p30
I1115
s.