(dp0
S'seq'
p1
(lp2
S'-scalarrepl'
p3
aS'-loop-unroll'
p4
aS'-tailcallelim'
p5
aS'-no-aa'
p6
aS'-scalarrepl-ssa'
p7
aS'-lazy-value-info'
p8
aS'-correlated-propagation'
p9
aS'-scalar-evolution'
p10
aS'-constmerge'
p11
aS'-sink'
p12
aS'-loop-reduce'
p13
aS'-indvars'
p14
aS'-ipsccp'
p15
aS'-lowerinvoke'
p16
aS'-loop-rotate'
p17
aS'-loop-idiom'
p18
aS'-instsimplify'
p19
aS'-partial-inliner'
p20
aS'-prune-eh'
p21
aS'-gvn'
p22
asS'fitness'
p23
I1776
s.