(dp0
S'seq'
p1
(lp2
S'-scalarrepl'
p3
aS'-reassociate'
p4
aS'-inline'
p5
aS'-scalar-evolution'
p6
aS'-functionattrs'
p7
aS'-loop-idiom'
p8
aS'-constmerge'
p9
aS'-argpromotion'
p10
aS'-sccp'
p11
aS'-die'
p12
aS'-dce'
p13
aS'-lowerinvoke'
p14
asS'fitness'
p15
I986
s.