(dp0
S'adpcm_coder'
p1
((lp2
S'-scalarrepl-ssa'
p3
aS'-loop-idiom'
p4
aS'-gvn'
p5
aS'-ipsccp'
p6
aS'-globalopt'
p7
aS'-loop-rotate'
p8
aS'-lower-expect'
p9
aS'-codegenprepare'
p10
aS'-loops'
p11
aS'-memcpyopt'
p12
aS'-loop-deletion'
p13
aI163262
F1788.6890308856964
tp14
s.