(dp0
S'seq'
p1
(lp2
S'-scalarrepl'
p3
aS'-globaldce'
p4
aS'-scalar-evolution'
p5
aS'-indvars'
p6
aS'-lowerinvoke'
p7
aS'-loops'
p8
aS'-mergefunc'
p9
aS'-loop-idiom'
p10
aS'-deadargelim'
p11
asS'fitness'
p12
I1925
s.