(dp0
S'seq'
p1
(lp2
S'-scalarrepl'
p3
aS'-deadargelim'
p4
aS'-loop-unroll'
p5
aS'-scalar-evolution'
p6
aS'-loop-rotate'
p7
aS'-loops'
p8
aS'-lowerinvoke'
p9
aS'-instsimplify'
p10
aS'-adce'
p11
aS'-loops'
p12
aS'-mergefunc'
p13
asS'fitness'
p14
I9355
s.