(dp0
S'seq'
p1
(lp2
S'-instcombine'
p3
aS'-ipsccp'
p4
aS'-ipconstprop'
p5
aS'-loop-simplify'
p6
aS'-lower-expect'
p7
aS'-loop-instsimplify'
p8
aS'-globaldce'
p9
aS'-adce'
p10
aS'-loop-idiom'
p11
aS'-targetlibinfo'
p12
aS'-memcpyopt'
p13
asS'fitness'
p14
I3691
s.